
Y:/Projects/FramethrowerDenise/Framethrower_Denise/Firmware/build/Framethrower_Denise.elf:     file format elf32-littlearm

Sections:
Idx Name          Size      VMA       LMA       File off  Algn
  0 .flashtext    000001f8  10000000  10000000  00001000  2**2
                  CONTENTS, ALLOC, LOAD, READONLY, CODE
  1 .rodata       00000000  100001f8  100001f8  00007be0  2**0
                  CONTENTS, ALLOC, LOAD, DATA
  2 .ARM.exidx    00000008  100001f8  100001f8  000011f8  2**2
                  CONTENTS, ALLOC, LOAD, READONLY, DATA
  3 .binary_info  00000020  10000200  10000200  00001200  2**2
                  CONTENTS, ALLOC, LOAD, READONLY, DATA
  4 .ram_vector_table 00000110  20000000  20000000  00008000  2**2
                  ALLOC
  5 .uninitialized_data 00000000  20000110  20000110  00007be0  2**0
                  CONTENTS
  6 .text         00003fb8  20000110  10000220  00002110  2**3
                  CONTENTS, ALLOC, LOAD, READONLY, CODE
  7 .data         000019f4  200040c8  100041d8  000060c8  2**3
                  CONTENTS, ALLOC, LOAD, CODE
  8 .tdata        00000000  20005abc  20005abc  00007be0  2**0
                  CONTENTS, ALLOC, LOAD, DATA, THREAD_LOCAL
  9 .tbss         00000000  20005abc  20005abc  00000000  2**0
                  ALLOC, THREAD_LOCAL
 10 .bss          0006a58c  20005ac0  10005bcc  00008ac0  2**3
                  ALLOC
 11 .heap         00000800  2007004c  2007004c  00007be0  2**2
                  CONTENTS, READONLY
 12 .scratch_x    00000000  20080000  20080000  000083e0  2**0
                  CONTENTS
 13 .scratch_y    00000000  20081000  20081000  000083e0  2**0
                  CONTENTS
 14 .stack1_dummy 00000800  20080000  20080000  00008000  2**2
                  ALLOC
 15 .stack_dummy  00000800  20081000  20081000  000083e0  2**5
                  CONTENTS, READONLY
 16 .flash_end    00000014  10005bcc  10005bcc  00007bcc  2**2
                  CONTENTS, ALLOC, LOAD, READONLY, DATA
 17 .ARM.attributes 00000034  00000000  00000000  00008be0  2**0
                  CONTENTS, READONLY
 18 .comment      00000045  00000000  00000000  00008c14  2**0
                  CONTENTS, READONLY
 19 .debug_info   00026602  00000000  00000000  00008c59  2**0
                  CONTENTS, READONLY, DEBUGGING, OCTETS
 20 .debug_abbrev 000069fe  00000000  00000000  0002f25b  2**0
                  CONTENTS, READONLY, DEBUGGING, OCTETS
 21 .debug_loclists 0000d56d  00000000  00000000  00035c59  2**0
                  CONTENTS, READONLY, DEBUGGING, OCTETS
 22 .debug_aranges 00001050  00000000  00000000  000431c8  2**3
                  CONTENTS, READONLY, DEBUGGING, OCTETS
 23 .debug_rnglists 0000161c  00000000  00000000  00044218  2**0
                  CONTENTS, READONLY, DEBUGGING, OCTETS
 24 .debug_line   000148a5  00000000  00000000  00045834  2**0
                  CONTENTS, READONLY, DEBUGGING, OCTETS
 25 .debug_str    00007751  00000000  00000000  0005a0d9  2**0
                  CONTENTS, READONLY, DEBUGGING, OCTETS
 26 .debug_frame  00002a68  00000000  00000000  0006182c  2**2
                  CONTENTS, READONLY, DEBUGGING, OCTETS
 27 .debug_line_str 0000029a  00000000  00000000  00064294  2**0
                  CONTENTS, READONLY, DEBUGGING, OCTETS

Y:/Projects/FramethrowerDenise/Framethrower_Denise/Firmware/build/Framethrower_Denise.elf:     file format elf32-littlearm


Disassembly of section .flashtext:

10000000 <__VECTOR_TABLE>:
10000000:	20082000 	.word	0x20082000
10000004:	1000015d 	.word	0x1000015d
10000008:	10000113 	.word	0x10000113
1000000c:	10000115 	.word	0x10000115
10000010:	10000111 	.word	0x10000111
10000014:	10000111 	.word	0x10000111
10000018:	10000111 	.word	0x10000111
1000001c:	10000111 	.word	0x10000111
10000020:	10000111 	.word	0x10000111
10000024:	10000111 	.word	0x10000111
10000028:	10000111 	.word	0x10000111
1000002c:	10000117 	.word	0x10000117
10000030:	10000111 	.word	0x10000111
10000034:	10000111 	.word	0x10000111
10000038:	10000119 	.word	0x10000119
1000003c:	1000011b 	.word	0x1000011b
10000040:	1000011d 	.word	0x1000011d
10000044:	1000011d 	.word	0x1000011d
10000048:	1000011d 	.word	0x1000011d
1000004c:	1000011d 	.word	0x1000011d
10000050:	1000011d 	.word	0x1000011d
10000054:	1000011d 	.word	0x1000011d
10000058:	1000011d 	.word	0x1000011d
1000005c:	1000011d 	.word	0x1000011d
10000060:	1000011d 	.word	0x1000011d
10000064:	1000011d 	.word	0x1000011d
10000068:	1000011d 	.word	0x1000011d
1000006c:	1000011d 	.word	0x1000011d
10000070:	1000011d 	.word	0x1000011d
10000074:	1000011d 	.word	0x1000011d
10000078:	1000011d 	.word	0x1000011d
1000007c:	1000011d 	.word	0x1000011d
10000080:	1000011d 	.word	0x1000011d
10000084:	1000011d 	.word	0x1000011d
10000088:	1000011d 	.word	0x1000011d
1000008c:	1000011d 	.word	0x1000011d
10000090:	1000011d 	.word	0x1000011d
10000094:	1000011d 	.word	0x1000011d
10000098:	1000011d 	.word	0x1000011d
1000009c:	1000011d 	.word	0x1000011d
100000a0:	1000011d 	.word	0x1000011d
100000a4:	1000011d 	.word	0x1000011d
100000a8:	1000011d 	.word	0x1000011d
100000ac:	1000011d 	.word	0x1000011d
100000b0:	1000011d 	.word	0x1000011d
100000b4:	1000011d 	.word	0x1000011d
100000b8:	1000011d 	.word	0x1000011d
100000bc:	1000011d 	.word	0x1000011d
100000c0:	1000011d 	.word	0x1000011d
100000c4:	1000011d 	.word	0x1000011d
100000c8:	1000011d 	.word	0x1000011d
100000cc:	1000011d 	.word	0x1000011d
100000d0:	1000011d 	.word	0x1000011d
100000d4:	1000011d 	.word	0x1000011d
100000d8:	1000011d 	.word	0x1000011d
100000dc:	1000011d 	.word	0x1000011d
100000e0:	1000011d 	.word	0x1000011d
100000e4:	1000011d 	.word	0x1000011d
100000e8:	1000011d 	.word	0x1000011d
100000ec:	1000011d 	.word	0x1000011d
100000f0:	1000011d 	.word	0x1000011d
100000f4:	1000011d 	.word	0x1000011d
100000f8:	1000011d 	.word	0x1000011d
100000fc:	1000011d 	.word	0x1000011d
10000100:	1000011d 	.word	0x1000011d
10000104:	1000011d 	.word	0x1000011d
10000108:	1000011d 	.word	0x1000011d
1000010c:	1000011d 	.word	0x1000011d

10000110 <isr_invalid>:
10000110:	be00      	bkpt	0x0000

10000112 <isr_nmi>:
10000112:	be00      	bkpt	0x0000

10000114 <isr_hardfault>:
10000114:	be00      	bkpt	0x0000

10000116 <isr_svcall>:
10000116:	be00      	bkpt	0x0000

10000118 <isr_pendsv>:
10000118:	be00      	bkpt	0x0000

1000011a <isr_systick>:
1000011a:	be00      	bkpt	0x0000

1000011c <__unhandled_user_irq>:
1000011c:	f3ef 8005 	mrs	r0, IPSR
10000120:	3810      	subs	r0, #16

10000122 <unhandled_user_irq_num_in_r0>:
10000122:	be00      	bkpt	0x0000

10000124 <binary_info_header>:
10000124:	7188ebf2 	.word	0x7188ebf2
10000128:	10000200 	.word	0x10000200
1000012c:	10000220 	.word	0x10000220
10000130:	100001a8 	.word	0x100001a8
10000134:	e71aa390 	.word	0xe71aa390

10000138 <__binary_info_header_end>:
10000138:	ffffded3 	.word	0xffffded3
1000013c:	10210142 	.word	0x10210142
10000140:	000001ff 	.word	0x000001ff
10000144:	00005a94 	.word	0x00005a94
10000148:	ab123579 	.word	0xab123579

1000014c <_entry_point>:
1000014c:	f04f 0000 	mov.w	r0, #0

10000150 <_enter_vtable_in_r0>:
10000150:	4923      	ldr	r1, [pc, #140]	@ (100001e0 <data_cpy_table+0x38>)
10000152:	6008      	str	r0, [r1, #0]
10000154:	c806      	ldmia	r0!, {r1, r2}
10000156:	f381 8808 	msr	MSP, r1
1000015a:	4710      	bx	r2

1000015c <_reset_handler>:
1000015c:	f04f 4050 	mov.w	r0, #3489660928	@ 0xd0000000
10000160:	6800      	ldr	r0, [r0, #0]
10000162:	b110      	cbz	r0, 1000016a <hold_non_core0_in_bootrom+0x6>

10000164 <hold_non_core0_in_bootrom>:
10000164:	f04f 0000 	mov.w	r0, #0
10000168:	e7f2      	b.n	10000150 <_enter_vtable_in_r0>
1000016a:	a40f      	add	r4, pc, #60	@ (adr r4, 100001a8 <data_cpy_table>)
1000016c:	cc0e      	ldmia	r4!, {r1, r2, r3}
1000016e:	2900      	cmp	r1, #0
10000170:	d002      	beq.n	10000178 <hold_non_core0_in_bootrom+0x14>
10000172:	f000 f815 	bl	100001a0 <data_cpy>
10000176:	e7f9      	b.n	1000016c <hold_non_core0_in_bootrom+0x8>
10000178:	491a      	ldr	r1, [pc, #104]	@ (100001e4 <data_cpy_table+0x3c>)
1000017a:	4a1b      	ldr	r2, [pc, #108]	@ (100001e8 <data_cpy_table+0x40>)
1000017c:	2000      	movs	r0, #0
1000017e:	e000      	b.n	10000182 <bss_fill_test>

10000180 <bss_fill_loop>:
10000180:	c101      	stmia	r1!, {r0}

10000182 <bss_fill_test>:
10000182:	4291      	cmp	r1, r2
10000184:	d1fc      	bne.n	10000180 <bss_fill_loop>

10000186 <platform_entry>:
10000186:	2000      	movs	r0, #0
10000188:	f380 880a 	msr	MSPLIM, r0
1000018c:	4917      	ldr	r1, [pc, #92]	@ (100001ec <data_cpy_table+0x44>)
1000018e:	4788      	blx	r1
10000190:	4917      	ldr	r1, [pc, #92]	@ (100001f0 <data_cpy_table+0x48>)
10000192:	4788      	blx	r1
10000194:	4917      	ldr	r1, [pc, #92]	@ (100001f4 <data_cpy_table+0x4c>)
10000196:	4788      	blx	r1
10000198:	be00      	bkpt	0x0000
1000019a:	e7fd      	b.n	10000198 <platform_entry+0x12>

1000019c <data_cpy_loop>:
1000019c:	c901      	ldmia	r1!, {r0}
1000019e:	c201      	stmia	r2!, {r0}

100001a0 <data_cpy>:
100001a0:	429a      	cmp	r2, r3
100001a2:	d3fb      	bcc.n	1000019c <data_cpy_loop>
100001a4:	4770      	bx	lr
100001a6:	bf00      	nop

100001a8 <data_cpy_table>:
100001a8:	10000220 	.word	0x10000220
100001ac:	20000110 	.word	0x20000110
100001b0:	200040c8 	.word	0x200040c8
100001b4:	100041d8 	.word	0x100041d8
100001b8:	200040c8 	.word	0x200040c8
100001bc:	20005abc 	.word	0x20005abc
100001c0:	10005bcc 	.word	0x10005bcc
100001c4:	20080000 	.word	0x20080000
100001c8:	20080000 	.word	0x20080000
100001cc:	10005bcc 	.word	0x10005bcc
100001d0:	20081000 	.word	0x20081000
100001d4:	20081000 	.word	0x20081000
100001d8:	00000000 	.word	0x00000000
100001dc:	4770      	bx	lr
100001de:	0000      	.short	0x0000
100001e0:	e000ed08 	.word	0xe000ed08
100001e4:	20005abc 	.word	0x20005abc
100001e8:	2007004c 	.word	0x2007004c
100001ec:	200033bd 	.word	0x200033bd
100001f0:	20004309 	.word	0x20004309
100001f4:	20003381 	.word	0x20003381

Disassembly of section .text:

20000110 <_init>:
20000110:	b5f8      	push	{r3, r4, r5, r6, r7, lr}
20000112:	bf00      	nop

20000114 <register_tm_clones>:
20000114:	4b06      	ldr	r3, [pc, #24]	@ (20000130 <register_tm_clones+0x1c>)
20000116:	4907      	ldr	r1, [pc, #28]	@ (20000134 <register_tm_clones+0x20>)
20000118:	1ac9      	subs	r1, r1, r3
2000011a:	1089      	asrs	r1, r1, #2
2000011c:	bf48      	it	mi
2000011e:	3101      	addmi	r1, #1
20000120:	1049      	asrs	r1, r1, #1
20000122:	d003      	beq.n	2000012c <register_tm_clones+0x18>
20000124:	4b04      	ldr	r3, [pc, #16]	@ (20000138 <register_tm_clones+0x24>)
20000126:	b10b      	cbz	r3, 2000012c <register_tm_clones+0x18>
20000128:	4801      	ldr	r0, [pc, #4]	@ (20000130 <register_tm_clones+0x1c>)
2000012a:	4718      	bx	r3
2000012c:	4770      	bx	lr
2000012e:	bf00      	nop
20000130:	20005abc 	.word	0x20005abc
20000134:	20005abc 	.word	0x20005abc
20000138:	00000000 	.word	0x00000000

2000013c <frame_dummy>:
2000013c:	b508      	push	{r3, lr}
2000013e:	4b05      	ldr	r3, [pc, #20]	@ (20000154 <frame_dummy+0x18>)
20000140:	b11b      	cbz	r3, 2000014a <frame_dummy+0xe>
20000142:	4905      	ldr	r1, [pc, #20]	@ (20000158 <frame_dummy+0x1c>)
20000144:	4805      	ldr	r0, [pc, #20]	@ (2000015c <frame_dummy+0x20>)
20000146:	f3af 8000 	nop.w
2000014a:	e8bd 4008 	ldmia.w	sp!, {r3, lr}
2000014e:	f7ff bfe1 	b.w	20000114 <register_tm_clones>
20000152:	bf00      	nop
20000154:	00000000 	.word	0x00000000
20000158:	2006cedc 	.word	0x2006cedc
2000015c:	200040c8 	.word	0x200040c8

20000160 <core1_entry>:
20000160:	e92d 4ff0 	stmdb	sp!, {r4, r5, r6, r7, r8, r9, sl, fp, lr}
20000164:	f44f 7680 	mov.w	r6, #256	@ 0x100
20000168:	f44f 7400 	mov.w	r4, #512	@ 0x200
2000016c:	f04f 0b00 	mov.w	fp, #0
20000170:	f04f 0a01 	mov.w	sl, #1
20000174:	4d37      	ldr	r5, [pc, #220]	@ (20000254 <core1_entry+0xf4>)
20000176:	b083      	sub	sp, #12
20000178:	682b      	ldr	r3, [r5, #0]
2000017a:	200f      	movs	r0, #15
2000017c:	f503 5305 	add.w	r3, r3, #8512	@ 0x2140
20000180:	631e      	str	r6, [r3, #48]	@ 0x30
20000182:	4935      	ldr	r1, [pc, #212]	@ (20000258 <core1_entry+0xf8>)
20000184:	f000 ff74 	bl	20001070 <irq_set_exclusive_handler>
20000188:	2101      	movs	r1, #1
2000018a:	200f      	movs	r0, #15
2000018c:	f000 ff5e 	bl	2000104c <irq_set_enabled>
20000190:	682b      	ldr	r3, [r5, #0]
20000192:	2010      	movs	r0, #16
20000194:	f503 5305 	add.w	r3, r3, #8512	@ 0x2140
20000198:	63dc      	str	r4, [r3, #60]	@ 0x3c
2000019a:	4d30      	ldr	r5, [pc, #192]	@ (2000025c <core1_entry+0xfc>)
2000019c:	492e      	ldr	r1, [pc, #184]	@ (20000258 <core1_entry+0xf8>)
2000019e:	f000 ff67 	bl	20001070 <irq_set_exclusive_handler>
200001a2:	2101      	movs	r1, #1
200001a4:	2010      	movs	r0, #16
200001a6:	f000 ff51 	bl	2000104c <irq_set_enabled>
200001aa:	682b      	ldr	r3, [r5, #0]
200001ac:	2011      	movs	r0, #17
200001ae:	f503 5305 	add.w	r3, r3, #8512	@ 0x2140
200001b2:	631e      	str	r6, [r3, #48]	@ 0x30
200001b4:	492a      	ldr	r1, [pc, #168]	@ (20000260 <core1_entry+0x100>)
200001b6:	f000 ff5b 	bl	20001070 <irq_set_exclusive_handler>
200001ba:	2101      	movs	r1, #1
200001bc:	2011      	movs	r0, #17
200001be:	f000 ff45 	bl	2000104c <irq_set_enabled>
200001c2:	682b      	ldr	r3, [r5, #0]
200001c4:	2012      	movs	r0, #18
200001c6:	f503 5305 	add.w	r3, r3, #8512	@ 0x2140
200001ca:	63dc      	str	r4, [r3, #60]	@ 0x3c
200001cc:	4924      	ldr	r1, [pc, #144]	@ (20000260 <core1_entry+0x100>)
200001ce:	f000 ff4f 	bl	20001070 <irq_set_exclusive_handler>
200001d2:	2101      	movs	r1, #1
200001d4:	2012      	movs	r0, #18
200001d6:	f000 ff39 	bl	2000104c <irq_set_enabled>
200001da:	4c22      	ldr	r4, [pc, #136]	@ (20000264 <core1_entry+0x104>)
200001dc:	4a22      	ldr	r2, [pc, #136]	@ (20000268 <core1_entry+0x108>)
200001de:	f8df 909c 	ldr.w	r9, [pc, #156]	@ 2000027c <core1_entry+0x11c>
200001e2:	f8df 809c 	ldr.w	r8, [pc, #156]	@ 20000280 <core1_entry+0x120>
200001e6:	4d21      	ldr	r5, [pc, #132]	@ (2000026c <core1_entry+0x10c>)
200001e8:	4f21      	ldr	r7, [pc, #132]	@ (20000270 <core1_entry+0x110>)
200001ea:	4e22      	ldr	r6, [pc, #136]	@ (20000274 <core1_entry+0x114>)
200001ec:	7823      	ldrb	r3, [r4, #0]
200001ee:	2b00      	cmp	r3, #0
200001f0:	d0fc      	beq.n	200001ec <core1_entry+0x8c>
200001f2:	f884 b000 	strb.w	fp, [r4]
200001f6:	f882 a000 	strb.w	sl, [r2]
200001fa:	f899 3000 	ldrb.w	r3, [r9]
200001fe:	bb03      	cbnz	r3, 20000242 <core1_entry+0xe2>
20000200:	f898 3000 	ldrb.w	r3, [r8]
20000204:	6829      	ldr	r1, [r5, #0]
20000206:	330d      	adds	r3, #13
20000208:	4299      	cmp	r1, r3
2000020a:	d9f9      	bls.n	20000200 <core1_entry+0xa0>
2000020c:	f899 3000 	ldrb.w	r3, [r9]
20000210:	2100      	movs	r1, #0
20000212:	b19b      	cbz	r3, 2000023c <core1_entry+0xdc>
20000214:	f240 131f 	movw	r3, #287	@ 0x11f
20000218:	4299      	cmp	r1, r3
2000021a:	d0e7      	beq.n	200001ec <core1_entry+0x8c>
2000021c:	4816      	ldr	r0, [pc, #88]	@ (20000278 <core1_entry+0x118>)
2000021e:	9101      	str	r1, [sp, #4]
20000220:	f004 f806 	bl	20004230 <get_pio_line>
20000224:	4a10      	ldr	r2, [pc, #64]	@ (20000268 <core1_entry+0x108>)
20000226:	9901      	ldr	r1, [sp, #4]
20000228:	f886 a000 	strb.w	sl, [r6]
2000022c:	7833      	ldrb	r3, [r6, #0]
2000022e:	2b00      	cmp	r3, #0
20000230:	d0fc      	beq.n	2000022c <core1_entry+0xcc>
20000232:	f899 3000 	ldrb.w	r3, [r9]
20000236:	3101      	adds	r1, #1
20000238:	2b00      	cmp	r3, #0
2000023a:	d1eb      	bne.n	20000214 <core1_entry+0xb4>
2000023c:	29ee      	cmp	r1, #238	@ 0xee
2000023e:	d8d5      	bhi.n	200001ec <core1_entry+0x8c>
20000240:	e7ec      	b.n	2000021c <core1_entry+0xbc>
20000242:	683b      	ldr	r3, [r7, #0]
20000244:	6829      	ldr	r1, [r5, #0]
20000246:	f003 0301 	and.w	r3, r3, #1
2000024a:	f1c3 030e 	rsb	r3, r3, #14
2000024e:	4299      	cmp	r1, r3
20000250:	d9f7      	bls.n	20000242 <core1_entry+0xe2>
20000252:	e7db      	b.n	2000020c <core1_entry+0xac>
20000254:	20005a44 	.word	0x20005a44
20000258:	200040c9 	.word	0x200040c9
2000025c:	20005a40 	.word	0x20005a40
20000260:	20004175 	.word	0x20004175
20000264:	20070049 	.word	0x20070049
20000268:	20005a3e 	.word	0x20005a3e
2000026c:	2006ced4 	.word	0x2006ced4
20000270:	2006c930 	.word	0x2006c930
20000274:	20070048 	.word	0x20070048
20000278:	2006c934 	.word	0x2006c934
2000027c:	20005a3f 	.word	0x20005a3f
20000280:	20005a3d 	.word	0x20005a3d

20000284 <setup_vsync_detect_sm>:
20000284:	e92d 4ff0 	stmdb	sp!, {r4, r5, r6, r7, r8, r9, sl, fp, lr}
20000288:	4f33      	ldr	r7, [pc, #204]	@ (20000358 <setup_vsync_detect_sm+0xd4>)
2000028a:	b08d      	sub	sp, #52	@ 0x34
2000028c:	4606      	mov	r6, r0
2000028e:	2101      	movs	r1, #1
20000290:	6838      	ldr	r0, [r7, #0]
20000292:	f003 fafd 	bl	20003890 <pio_claim_unused_sm>
20000296:	f04f 0800 	mov.w	r8, #0
2000029a:	f44f 2340 	mov.w	r3, #786432	@ 0xc0000
2000029e:	f44f 3280 	mov.w	r2, #65536	@ 0x10000
200002a2:	e9cd 3804 	strd	r3, r8, [sp, #16]
200002a6:	f44f 33f8 	mov.w	r3, #126976	@ 0x1f000
200002aa:	ac07      	add	r4, sp, #28
200002ac:	f10d 0a08 	add.w	sl, sp, #8
200002b0:	46d6      	mov	lr, sl
200002b2:	4625      	mov	r5, r4
200002b4:	f04f 3bff 	mov.w	fp, #4294967295
200002b8:	e9cd 2302 	strd	r2, r3, [sp, #8]
200002bc:	f106 020f 	add.w	r2, r6, #15
200002c0:	01f3      	lsls	r3, r6, #7
200002c2:	ea43 3302 	orr.w	r3, r3, r2, lsl #12
200002c6:	9301      	str	r3, [sp, #4]
200002c8:	f8df 9094 	ldr.w	r9, [pc, #148]	@ 20000360 <setup_vsync_detect_sm+0xdc>
200002cc:	683b      	ldr	r3, [r7, #0]
200002ce:	f8c9 0000 	str.w	r0, [r9]
200002d2:	f103 4c2f 	add.w	ip, r3, #2936012800	@ 0xaf000000
200002d6:	e8ba 000f 	ldmia.w	sl!, {r0, r1, r2, r3}
200002da:	c40f      	stmia	r4!, {r0, r1, r2, r3}
200002dc:	9b01      	ldr	r3, [sp, #4]
200002de:	f50c 0c60 	add.w	ip, ip, #14680064	@ 0xe00000
200002e2:	9308      	str	r3, [sp, #32]
200002e4:	cd0f      	ldmia	r5!, {r0, r1, r2, r3}
200002e6:	e8ae 000f 	stmia.w	lr!, {r0, r1, r2, r3}
200002ea:	ea4f 5c1c 	mov.w	ip, ip, lsr #20
200002ee:	4b1b      	ldr	r3, [pc, #108]	@ (2000035c <setup_vsync_detect_sm+0xd8>)
200002f0:	f10c 0c06 	add.w	ip, ip, #6
200002f4:	f8ce b000 	str.w	fp, [lr]
200002f8:	2017      	movs	r0, #23
200002fa:	fa5f f18c 	uxtb.w	r1, ip
200002fe:	9302      	str	r3, [sp, #8]
20000300:	f8c4 b000 	str.w	fp, [r4]
20000304:	f000 fd50 	bl	20000da8 <gpio_set_function>
20000308:	2317      	movs	r3, #23
2000030a:	ec48 3044 	gpioc_bit_oe_put r3, r8
2000030e:	9b03      	ldr	r3, [sp, #12]
20000310:	9a05      	ldr	r2, [sp, #20]
20000312:	f023 53f8 	bic.w	r3, r3, #520093696	@ 0x1f000000
20000316:	f043 51b8 	orr.w	r1, r3, #385875968	@ 0x17000000
2000031a:	9103      	str	r1, [sp, #12]
2000031c:	9906      	ldr	r1, [sp, #24]
2000031e:	f422 2278 	bic.w	r2, r2, #1015808	@ 0xf8000
20000322:	f36f 31d8 	bfc	r1, #15, #10
20000326:	f442 2238 	orr.w	r2, r2, #753664	@ 0xb8000
2000032a:	f441 1184 	orr.w	r1, r1, #1081344	@ 0x108000
2000032e:	9205      	str	r2, [sp, #20]
20000330:	ab02      	add	r3, sp, #8
20000332:	4632      	mov	r2, r6
20000334:	9106      	str	r1, [sp, #24]
20000336:	6838      	ldr	r0, [r7, #0]
20000338:	f8d9 1000 	ldr.w	r1, [r9]
2000033c:	f003 fb3b 	bl	200039b6 <pio_sm_init>
20000340:	2301      	movs	r3, #1
20000342:	683a      	ldr	r2, [r7, #0]
20000344:	f8d9 0000 	ldr.w	r0, [r9]
20000348:	6811      	ldr	r1, [r2, #0]
2000034a:	4083      	lsls	r3, r0
2000034c:	430b      	orrs	r3, r1
2000034e:	6013      	str	r3, [r2, #0]
20000350:	b00d      	add	sp, #52	@ 0x34
20000352:	e8bd 8ff0 	ldmia.w	sp!, {r4, r5, r6, r7, r8, r9, sl, fp, pc}
20000356:	bf00      	nop
20000358:	20005a44 	.word	0x20005a44
2000035c:	0022cd00 	.word	0x0022cd00
20000360:	20070040 	.word	0x20070040

20000364 <setup_video_capture_sm>:
20000364:	e92d 4ff0 	stmdb	sp!, {r4, r5, r6, r7, r8, r9, sl, fp, lr}
20000368:	4f30      	ldr	r7, [pc, #192]	@ (2000042c <setup_video_capture_sm+0xc8>)
2000036a:	b08f      	sub	sp, #60	@ 0x3c
2000036c:	4604      	mov	r4, r0
2000036e:	2101      	movs	r1, #1
20000370:	6838      	ldr	r0, [r7, #0]
20000372:	f003 fa8d 	bl	20003890 <pio_claim_unused_sm>
20000376:	f44f 2340 	mov.w	r3, #786432	@ 0xc0000
2000037a:	01e2      	lsls	r2, r4, #7
2000037c:	9306      	str	r3, [sp, #24]
2000037e:	f104 0308 	add.w	r3, r4, #8
20000382:	ea4f 3b03 	mov.w	fp, r3, lsl #12
20000386:	9203      	str	r2, [sp, #12]
20000388:	f44f 33f8 	mov.w	r3, #126976	@ 0x1f000
2000038c:	f44f 3280 	mov.w	r2, #65536	@ 0x10000
20000390:	f04f 0a00 	mov.w	sl, #0
20000394:	e9cd 2304 	strd	r2, r3, [sp, #16]
20000398:	f8df 9094 	ldr.w	r9, [pc, #148]	@ 20000430 <setup_video_capture_sm+0xcc>
2000039c:	f8cd a000 	str.w	sl, [sp]
200003a0:	f8cd a01c 	str.w	sl, [sp, #28]
200003a4:	f10d 0c24 	add.w	ip, sp, #36	@ 0x24
200003a8:	ae04      	add	r6, sp, #16
200003aa:	4680      	mov	r8, r0
200003ac:	f8c9 0000 	str.w	r0, [r9]
200003b0:	46b6      	mov	lr, r6
200003b2:	ce0f      	ldmia	r6!, {r0, r1, r2, r3}
200003b4:	4665      	mov	r5, ip
200003b6:	e8ac 000f 	stmia.w	ip!, {r0, r1, r2, r3}
200003ba:	f04f 31ff 	mov.w	r1, #4294967295
200003be:	ea4b 13c4 	orr.w	r3, fp, r4, lsl #7
200003c2:	930a      	str	r3, [sp, #40]	@ 0x28
200003c4:	f8cc 1000 	str.w	r1, [ip]
200003c8:	cd0f      	ldmia	r5!, {r0, r1, r2, r3}
200003ca:	e8ae 000f 	stmia.w	lr!, {r0, r1, r2, r3}
200003ce:	f46f 2178 	mvn.w	r1, #1015808	@ 0xf8000
200003d2:	4652      	mov	r2, sl
200003d4:	9108      	str	r1, [sp, #32]
200003d6:	2320      	movs	r3, #32
200003d8:	4641      	mov	r1, r8
200003da:	6838      	ldr	r0, [r7, #0]
200003dc:	f003 fa9c 	bl	20003918 <pio_sm_set_consecutive_pindirs>
200003e0:	9b05      	ldr	r3, [sp, #20]
200003e2:	4622      	mov	r2, r4
200003e4:	f423 31ff 	bic.w	r1, r3, #130560	@ 0x1fe00
200003e8:	9b03      	ldr	r3, [sp, #12]
200003ea:	f421 71c0 	bic.w	r1, r1, #384	@ 0x180
200003ee:	4319      	orrs	r1, r3
200003f0:	9b06      	ldr	r3, [sp, #24]
200003f2:	ea41 010b 	orr.w	r1, r1, fp
200003f6:	f023 73fa 	bic.w	r3, r3, #32768000	@ 0x1f40000
200003fa:	f423 3380 	bic.w	r3, r3, #65536	@ 0x10000
200003fe:	f443 13a8 	orr.w	r3, r3, #1376256	@ 0x150000
20000402:	9105      	str	r1, [sp, #20]
20000404:	9306      	str	r3, [sp, #24]
20000406:	f8d9 1000 	ldr.w	r1, [r9]
2000040a:	ab04      	add	r3, sp, #16
2000040c:	6838      	ldr	r0, [r7, #0]
2000040e:	f003 fad2 	bl	200039b6 <pio_sm_init>
20000412:	2201      	movs	r2, #1
20000414:	6839      	ldr	r1, [r7, #0]
20000416:	f8d9 0000 	ldr.w	r0, [r9]
2000041a:	680b      	ldr	r3, [r1, #0]
2000041c:	4082      	lsls	r2, r0
2000041e:	ea23 0302 	bic.w	r3, r3, r2
20000422:	600b      	str	r3, [r1, #0]
20000424:	b00f      	add	sp, #60	@ 0x3c
20000426:	e8bd 8ff0 	ldmia.w	sp!, {r4, r5, r6, r7, r8, r9, sl, fp, pc}
2000042a:	bf00      	nop
2000042c:	20005a44 	.word	0x20005a44
20000430:	2007003c 	.word	0x2007003c

20000434 <setup_rga_read_sm>:
20000434:	e92d 4ff0 	stmdb	sp!, {r4, r5, r6, r7, r8, r9, sl, fp, lr}
20000438:	4f2f      	ldr	r7, [pc, #188]	@ (200004f8 <setup_rga_read_sm+0xc4>)
2000043a:	b08b      	sub	sp, #44	@ 0x2c
2000043c:	4606      	mov	r6, r0
2000043e:	2110      	movs	r1, #16
20000440:	6838      	ldr	r0, [r7, #0]
20000442:	f003 fa41 	bl	200038c8 <pio_set_gpio_base>
20000446:	2101      	movs	r1, #1
20000448:	6838      	ldr	r0, [r7, #0]
2000044a:	f003 fa21 	bl	20003890 <pio_claim_unused_sm>
2000044e:	f44f 2b40 	mov.w	fp, #786432	@ 0xc0000
20000452:	2300      	movs	r3, #0
20000454:	ea4f 1ac6 	mov.w	sl, r6, lsl #7
20000458:	e9cd b302 	strd	fp, r3, [sp, #8]
2000045c:	f106 030a 	add.w	r3, r6, #10
20000460:	f44f 3280 	mov.w	r2, #65536	@ 0x10000
20000464:	ea4a 3a03 	orr.w	sl, sl, r3, lsl #12
20000468:	f44f 33f8 	mov.w	r3, #126976	@ 0x1f000
2000046c:	466d      	mov	r5, sp
2000046e:	e9cd 2300 	strd	r2, r3, [sp]
20000472:	f8df 9088 	ldr.w	r9, [pc, #136]	@ 200004fc <setup_rga_read_sm+0xc8>
20000476:	f10d 0c14 	add.w	ip, sp, #20
2000047a:	4680      	mov	r8, r0
2000047c:	4664      	mov	r4, ip
2000047e:	f8c9 0000 	str.w	r0, [r9]
20000482:	46ee      	mov	lr, sp
20000484:	cd0f      	ldmia	r5!, {r0, r1, r2, r3}
20000486:	e8ac 000f 	stmia.w	ip!, {r0, r1, r2, r3}
2000048a:	f04f 33ff 	mov.w	r3, #4294967295
2000048e:	f8cd a018 	str.w	sl, [sp, #24]
20000492:	f8cc 3000 	str.w	r3, [ip]
20000496:	cc0f      	ldmia	r4!, {r0, r1, r2, r3}
20000498:	e8ae 000f 	stmia.w	lr!, {r0, r1, r2, r3}
2000049c:	f46f 2370 	mvn.w	r3, #983040	@ 0xf0000
200004a0:	4632      	mov	r2, r6
200004a2:	4641      	mov	r1, r8
200004a4:	9304      	str	r3, [sp, #16]
200004a6:	6838      	ldr	r0, [r7, #0]
200004a8:	466b      	mov	r3, sp
200004aa:	f8cd b00c 	str.w	fp, [sp, #12]
200004ae:	f003 fa82 	bl	200039b6 <pio_sm_init>
200004b2:	2101      	movs	r1, #1
200004b4:	f8d9 0000 	ldr.w	r0, [r9]
200004b8:	683a      	ldr	r2, [r7, #0]
200004ba:	f100 0310 	add.w	r3, r0, #16
200004be:	4099      	lsls	r1, r3
200004c0:	6853      	ldr	r3, [r2, #4]
200004c2:	420b      	tst	r3, r1
200004c4:	d1fc      	bne.n	200004c0 <setup_rga_read_sm+0x8c>
200004c6:	25f9      	movs	r5, #249	@ 0xf9
200004c8:	2301      	movs	r3, #1
200004ca:	1d01      	adds	r1, r0, #4
200004cc:	f842 5021 	str.w	r5, [r2, r1, lsl #2]
200004d0:	6811      	ldr	r1, [r2, #0]
200004d2:	4083      	lsls	r3, r0
200004d4:	430b      	orrs	r3, r1
200004d6:	f248 0480 	movw	r4, #32896	@ 0x8080
200004da:	f24a 0127 	movw	r1, #40999	@ 0xa027
200004de:	eb00 0040 	add.w	r0, r0, r0, lsl #1
200004e2:	eb02 00c0 	add.w	r0, r2, r0, lsl #3
200004e6:	6013      	str	r3, [r2, #0]
200004e8:	f8c0 40d8 	str.w	r4, [r0, #216]	@ 0xd8
200004ec:	f8c0 10d8 	str.w	r1, [r0, #216]	@ 0xd8
200004f0:	b00b      	add	sp, #44	@ 0x2c
200004f2:	e8bd 8ff0 	ldmia.w	sp!, {r4, r5, r6, r7, r8, r9, sl, fp, pc}
200004f6:	bf00      	nop
200004f8:	20005a40 	.word	0x20005a40
200004fc:	20070034 	.word	0x20070034

20000500 <setup_rga_write_sm>:
20000500:	e92d 4ff0 	stmdb	sp!, {r4, r5, r6, r7, r8, r9, sl, fp, lr}
20000504:	4d3b      	ldr	r5, [pc, #236]	@ (200005f4 <setup_rga_write_sm+0xf4>)
20000506:	b08b      	sub	sp, #44	@ 0x2c
20000508:	4606      	mov	r6, r0
2000050a:	2110      	movs	r1, #16
2000050c:	6828      	ldr	r0, [r5, #0]
2000050e:	f003 f9db 	bl	200038c8 <pio_set_gpio_base>
20000512:	2101      	movs	r1, #1
20000514:	6828      	ldr	r0, [r5, #0]
20000516:	f003 f9bb 	bl	20003890 <pio_claim_unused_sm>
2000051a:	2300      	movs	r3, #0
2000051c:	f44f 2240 	mov.w	r2, #786432	@ 0xc0000
20000520:	e9cd 2302 	strd	r2, r3, [sp, #8]
20000524:	f44f 3280 	mov.w	r2, #65536	@ 0x10000
20000528:	f44f 33f8 	mov.w	r3, #126976	@ 0x1f000
2000052c:	46e8      	mov	r8, sp
2000052e:	e9cd 2300 	strd	r2, r3, [sp]
20000532:	f8df 90c8 	ldr.w	r9, [pc, #200]	@ 200005fc <setup_rga_write_sm+0xfc>
20000536:	f10d 0c14 	add.w	ip, sp, #20
2000053a:	4667      	mov	r7, ip
2000053c:	46ee      	mov	lr, sp
2000053e:	f8c9 0000 	str.w	r0, [r9]
20000542:	e8b8 000f 	ldmia.w	r8!, {r0, r1, r2, r3}
20000546:	e8ac 000f 	stmia.w	ip!, {r0, r1, r2, r3}
2000054a:	f04f 33ff 	mov.w	r3, #4294967295
2000054e:	f106 0a0a 	add.w	sl, r6, #10
20000552:	ea4f 3a0a 	mov.w	sl, sl, lsl #12
20000556:	ea4a 11c6 	orr.w	r1, sl, r6, lsl #7
2000055a:	9106      	str	r1, [sp, #24]
2000055c:	f8cc 3000 	str.w	r3, [ip]
20000560:	cf0f      	ldmia	r7!, {r0, r1, r2, r3}
20000562:	e8ae 000f 	stmia.w	lr!, {r0, r1, r2, r3}
20000566:	f04f 7286 	mov.w	r2, #17563648	@ 0x10c0000
2000056a:	2420      	movs	r4, #32
2000056c:	4b22      	ldr	r3, [pc, #136]	@ (200005f8 <setup_rga_write_sm+0xf8>)
2000056e:	ea4f 1bc6 	mov.w	fp, r6, lsl #7
20000572:	e9cd 2303 	strd	r2, r3, [sp, #12]
20000576:	6829      	ldr	r1, [r5, #0]
20000578:	4620      	mov	r0, r4
2000057a:	f101 412f 	add.w	r1, r1, #2936012800	@ 0xaf000000
2000057e:	f501 0160 	add.w	r1, r1, #14680064	@ 0xe00000
20000582:	0d09      	lsrs	r1, r1, #20
20000584:	3106      	adds	r1, #6
20000586:	b2c9      	uxtb	r1, r1
20000588:	3401      	adds	r4, #1
2000058a:	f000 fc0d 	bl	20000da8 <gpio_set_function>
2000058e:	2c31      	cmp	r4, #49	@ 0x31
20000590:	d1f1      	bne.n	20000576 <setup_rga_write_sm+0x76>
20000592:	9901      	ldr	r1, [sp, #4]
20000594:	466b      	mov	r3, sp
20000596:	f36f 11d0 	bfc	r1, #7, #10
2000059a:	ea41 010b 	orr.w	r1, r1, fp
2000059e:	ea41 010a 	orr.w	r1, r1, sl
200005a2:	4632      	mov	r2, r6
200005a4:	9101      	str	r1, [sp, #4]
200005a6:	6828      	ldr	r0, [r5, #0]
200005a8:	f8d9 1000 	ldr.w	r1, [r9]
200005ac:	f003 fa03 	bl	200039b6 <pio_sm_init>
200005b0:	2101      	movs	r1, #1
200005b2:	f8d9 0000 	ldr.w	r0, [r9]
200005b6:	682a      	ldr	r2, [r5, #0]
200005b8:	f100 0310 	add.w	r3, r0, #16
200005bc:	4099      	lsls	r1, r3
200005be:	6853      	ldr	r3, [r2, #4]
200005c0:	420b      	tst	r3, r1
200005c2:	d1fc      	bne.n	200005be <setup_rga_write_sm+0xbe>
200005c4:	25fa      	movs	r5, #250	@ 0xfa
200005c6:	2301      	movs	r3, #1
200005c8:	1d01      	adds	r1, r0, #4
200005ca:	f842 5021 	str.w	r5, [r2, r1, lsl #2]
200005ce:	6811      	ldr	r1, [r2, #0]
200005d0:	4083      	lsls	r3, r0
200005d2:	430b      	orrs	r3, r1
200005d4:	f248 0480 	movw	r4, #32896	@ 0x8080
200005d8:	f24a 0127 	movw	r1, #40999	@ 0xa027
200005dc:	eb00 0040 	add.w	r0, r0, r0, lsl #1
200005e0:	eb02 00c0 	add.w	r0, r2, r0, lsl #3
200005e4:	6013      	str	r3, [r2, #0]
200005e6:	f8c0 40d8 	str.w	r4, [r0, #216]	@ 0xd8
200005ea:	f8c0 10d8 	str.w	r1, [r0, #216]	@ 0xd8
200005ee:	b00b      	add	sp, #44	@ 0x2c
200005f0:	e8bd 8ff0 	ldmia.w	sp!, {r4, r5, r6, r7, r8, r9, sl, fp, pc}
200005f4:	20005a40 	.word	0x20005a40
200005f8:	fff0ffe2 	.word	0xfff0ffe2
200005fc:	20070038 	.word	0x20070038

20000600 <stop_hstx>:
20000600:	b510      	push	{r4, lr}
20000602:	2401      	movs	r4, #1
20000604:	4b0e      	ldr	r3, [pc, #56]	@ (20000640 <stop_hstx+0x40>)
20000606:	f8c3 4404 	str.w	r4, [r3, #1028]	@ 0x404
2000060a:	2105      	movs	r1, #5
2000060c:	200d      	movs	r0, #13
2000060e:	f000 fbcb 	bl	20000da8 <gpio_set_function>
20000612:	2105      	movs	r1, #5
20000614:	200c      	movs	r0, #12
20000616:	f000 fbc7 	bl	20000da8 <gpio_set_function>
2000061a:	220f      	movs	r2, #15
2000061c:	ec44 2040 	gpioc_bit_out_put r2, r4
20000620:	220e      	movs	r2, #14
20000622:	ec44 2040 	gpioc_bit_out_put r2, r4
20000626:	220d      	movs	r2, #13
20000628:	ec44 2040 	gpioc_bit_out_put r2, r4
2000062c:	220c      	movs	r2, #12
2000062e:	ec44 2040 	gpioc_bit_out_put r2, r4
20000632:	4b04      	ldr	r3, [pc, #16]	@ (20000644 <stop_hstx+0x44>)
20000634:	681b      	ldr	r3, [r3, #0]
20000636:	f413 7f00 	tst.w	r3, #512	@ 0x200
2000063a:	d0fa      	beq.n	20000632 <stop_hstx+0x32>
2000063c:	e004      	b.n	20000648 <stop_hstx+0x48>
2000063e:	bf00      	nop
20000640:	50003000 	.word	0x50003000
20000644:	50600000 	.word	0x50600000
20000648:	bf00      	nop
2000064a:	bf00      	nop
2000064c:	bf00      	nop
2000064e:	bf00      	nop
20000650:	bf00      	nop
20000652:	bf00      	nop
20000654:	bf00      	nop
20000656:	bf00      	nop
20000658:	bf00      	nop
2000065a:	bf00      	nop
2000065c:	bf00      	nop
2000065e:	bf00      	nop
20000660:	bf00      	nop
20000662:	bf00      	nop
20000664:	bf00      	nop
20000666:	bf00      	nop
20000668:	bf00      	nop
2000066a:	bf00      	nop
2000066c:	bf00      	nop
2000066e:	bf00      	nop
20000670:	bf00      	nop
20000672:	bf00      	nop
20000674:	bf00      	nop
20000676:	bf00      	nop
20000678:	bf00      	nop
2000067a:	bf00      	nop
2000067c:	bf00      	nop
2000067e:	bf00      	nop
20000680:	bf00      	nop
20000682:	bf00      	nop
20000684:	bf00      	nop
20000686:	bf00      	nop
20000688:	bf00      	nop
2000068a:	bf00      	nop
2000068c:	bf00      	nop
2000068e:	bf00      	nop
20000690:	bf00      	nop
20000692:	bf00      	nop
20000694:	bf00      	nop
20000696:	bf00      	nop
20000698:	bf00      	nop
2000069a:	bf00      	nop
2000069c:	bf00      	nop
2000069e:	bf00      	nop
200006a0:	bf00      	nop
200006a2:	bf00      	nop
200006a4:	bf00      	nop
200006a6:	bf00      	nop
200006a8:	bf00      	nop
200006aa:	bf00      	nop
200006ac:	bf00      	nop
200006ae:	bf00      	nop
200006b0:	bf00      	nop
200006b2:	bf00      	nop
200006b4:	bf00      	nop
200006b6:	bf00      	nop
200006b8:	bf00      	nop
200006ba:	bf00      	nop
200006bc:	bf00      	nop
200006be:	bf00      	nop
200006c0:	bf00      	nop
200006c2:	bf00      	nop
200006c4:	bf00      	nop
200006c6:	bf00      	nop
200006c8:	bf00      	nop
200006ca:	bf00      	nop
200006cc:	bf00      	nop
200006ce:	bf00      	nop
200006d0:	bf00      	nop
200006d2:	bf00      	nop
200006d4:	bf00      	nop
200006d6:	bf00      	nop
200006d8:	bf00      	nop
200006da:	bf00      	nop
200006dc:	bf00      	nop
200006de:	bf00      	nop
200006e0:	bf00      	nop
200006e2:	bf00      	nop
200006e4:	bf00      	nop
200006e6:	bf00      	nop
200006e8:	bf00      	nop
200006ea:	bf00      	nop
200006ec:	bf00      	nop
200006ee:	bf00      	nop
200006f0:	bf00      	nop
200006f2:	bf00      	nop
200006f4:	bf00      	nop
200006f6:	bf00      	nop
200006f8:	bf00      	nop
200006fa:	bf00      	nop
200006fc:	bf00      	nop
200006fe:	bf00      	nop
20000700:	bf00      	nop
20000702:	bf00      	nop
20000704:	bf00      	nop
20000706:	bf00      	nop
20000708:	bf00      	nop
2000070a:	bf00      	nop
2000070c:	bf00      	nop
2000070e:	bf00      	nop
20000710:	bf00      	nop
20000712:	bf00      	nop
20000714:	bf00      	nop
20000716:	bf00      	nop
20000718:	bf00      	nop
2000071a:	bf00      	nop
2000071c:	bf00      	nop
2000071e:	bf00      	nop
20000720:	bf00      	nop
20000722:	bf00      	nop
20000724:	bf00      	nop
20000726:	bf00      	nop
20000728:	bf00      	nop
2000072a:	bf00      	nop
2000072c:	bf00      	nop
2000072e:	bf00      	nop
20000730:	bf00      	nop
20000732:	bf00      	nop
20000734:	bf00      	nop
20000736:	bf00      	nop
20000738:	bf00      	nop
2000073a:	bf00      	nop
2000073c:	bf00      	nop
2000073e:	bf00      	nop
20000740:	bf00      	nop
20000742:	bf00      	nop
20000744:	bf00      	nop
20000746:	bf00      	nop
20000748:	bf00      	nop
2000074a:	bf00      	nop
2000074c:	bf00      	nop
2000074e:	bf00      	nop
20000750:	bf00      	nop
20000752:	bf00      	nop
20000754:	bf00      	nop
20000756:	bf00      	nop
20000758:	bf00      	nop
2000075a:	bf00      	nop
2000075c:	bf00      	nop
2000075e:	bf00      	nop
20000760:	bf00      	nop
20000762:	bf00      	nop
20000764:	bf00      	nop
20000766:	bf00      	nop
20000768:	bf00      	nop
2000076a:	bf00      	nop
2000076c:	bf00      	nop
2000076e:	bf00      	nop
20000770:	bf00      	nop
20000772:	bf00      	nop
20000774:	bf00      	nop
20000776:	bf00      	nop
20000778:	bf00      	nop
2000077a:	bf00      	nop
2000077c:	bf00      	nop
2000077e:	bf00      	nop
20000780:	bf00      	nop
20000782:	bf00      	nop
20000784:	bf00      	nop
20000786:	bf00      	nop
20000788:	bf00      	nop
2000078a:	bf00      	nop
2000078c:	bf00      	nop
2000078e:	bf00      	nop
20000790:	bf00      	nop
20000792:	bf00      	nop
20000794:	bf00      	nop
20000796:	bf00      	nop
20000798:	bf00      	nop
2000079a:	bf00      	nop
2000079c:	bf00      	nop
2000079e:	bf00      	nop
200007a0:	bf00      	nop
200007a2:	bf00      	nop
200007a4:	bf00      	nop
200007a6:	bf00      	nop
200007a8:	bf00      	nop
200007aa:	bf00      	nop
200007ac:	bf00      	nop
200007ae:	bf00      	nop
200007b0:	bf00      	nop
200007b2:	bf00      	nop
200007b4:	bf00      	nop
200007b6:	bf00      	nop
200007b8:	bf00      	nop
200007ba:	bf00      	nop
200007bc:	bf00      	nop
200007be:	bf00      	nop
200007c0:	bf00      	nop
200007c2:	bf00      	nop
200007c4:	bf00      	nop
200007c6:	bf00      	nop
200007c8:	bf00      	nop
200007ca:	bf00      	nop
200007cc:	bf00      	nop
200007ce:	bf00      	nop
200007d0:	bf00      	nop
200007d2:	bf00      	nop
200007d4:	bf00      	nop
200007d6:	bf00      	nop
200007d8:	bf00      	nop
200007da:	bf00      	nop
200007dc:	bf00      	nop
200007de:	bf00      	nop
200007e0:	bf00      	nop
200007e2:	bf00      	nop
200007e4:	bf00      	nop
200007e6:	bf00      	nop
200007e8:	bf00      	nop
200007ea:	bf00      	nop
200007ec:	bf00      	nop
200007ee:	bf00      	nop
200007f0:	bf00      	nop
200007f2:	bf00      	nop
200007f4:	bf00      	nop
200007f6:	bf00      	nop
200007f8:	bf00      	nop
200007fa:	bf00      	nop
200007fc:	bf00      	nop
200007fe:	bf00      	nop
20000800:	bf00      	nop
20000802:	bf00      	nop
20000804:	bf00      	nop
20000806:	bf00      	nop
20000808:	bf00      	nop
2000080a:	bf00      	nop
2000080c:	bf00      	nop
2000080e:	bf00      	nop
20000810:	bf00      	nop
20000812:	bf00      	nop
20000814:	bf00      	nop
20000816:	bf00      	nop
20000818:	2105      	movs	r1, #5
2000081a:	2011      	movs	r0, #17
2000081c:	f000 fac4 	bl	20000da8 <gpio_set_function>
20000820:	2105      	movs	r1, #5
20000822:	2010      	movs	r0, #16
20000824:	f000 fac0 	bl	20000da8 <gpio_set_function>
20000828:	2105      	movs	r1, #5
2000082a:	200d      	movs	r0, #13
2000082c:	f000 fabc 	bl	20000da8 <gpio_set_function>
20000830:	2105      	movs	r1, #5
20000832:	200c      	movs	r0, #12
20000834:	f000 fab8 	bl	20000da8 <gpio_set_function>
20000838:	ee10 3010 			gpioc_lo_out_get r3
2000083c:	43db      	mvns	r3, r3
2000083e:	f403 237f 	and.w	r3, r3, #1044480	@ 0xff000
20000842:	ee20 3010 			gpioc_lo_out_xor r3
20000846:	4b02      	ldr	r3, [pc, #8]	@ (20000850 <stop_hstx+0x250>)
20000848:	2200      	movs	r2, #0
2000084a:	701a      	strb	r2, [r3, #0]
2000084c:	bd10      	pop	{r4, pc}
2000084e:	bf00      	nop
20000850:	20070047 	.word	0x20070047

20000854 <start_hstx>:
20000854:	e92d 41f0 	stmdb	sp!, {r4, r5, r6, r7, r8, lr}
20000858:	b088      	sub	sp, #32
2000085a:	4b07      	ldr	r3, [pc, #28]	@ (20000878 <start_hstx+0x24>)
2000085c:	2201      	movs	r2, #1
2000085e:	701a      	strb	r2, [r3, #0]
20000860:	2220      	movs	r2, #32
20000862:	2100      	movs	r1, #0
20000864:	4668      	mov	r0, sp
20000866:	f003 fb3b 	bl	20003ee0 <memset>
2000086a:	4b04      	ldr	r3, [pc, #16]	@ (2000087c <start_hstx+0x28>)
2000086c:	681b      	ldr	r3, [r3, #0]
2000086e:	f413 7f00 	tst.w	r3, #512	@ 0x200
20000872:	d0fa      	beq.n	2000086a <start_hstx+0x16>
20000874:	e004      	b.n	20000880 <start_hstx+0x2c>
20000876:	bf00      	nop
20000878:	20070047 	.word	0x20070047
2000087c:	50600000 	.word	0x50600000
20000880:	bf00      	nop
20000882:	bf00      	nop
20000884:	bf00      	nop
20000886:	bf00      	nop
20000888:	bf00      	nop
2000088a:	bf00      	nop
2000088c:	bf00      	nop
2000088e:	bf00      	nop
20000890:	bf00      	nop
20000892:	bf00      	nop
20000894:	bf00      	nop
20000896:	bf00      	nop
20000898:	bf00      	nop
2000089a:	bf00      	nop
2000089c:	bf00      	nop
2000089e:	bf00      	nop
200008a0:	bf00      	nop
200008a2:	bf00      	nop
200008a4:	bf00      	nop
200008a6:	bf00      	nop
200008a8:	bf00      	nop
200008aa:	bf00      	nop
200008ac:	bf00      	nop
200008ae:	bf00      	nop
200008b0:	bf00      	nop
200008b2:	bf00      	nop
200008b4:	bf00      	nop
200008b6:	bf00      	nop
200008b8:	bf00      	nop
200008ba:	bf00      	nop
200008bc:	bf00      	nop
200008be:	bf00      	nop
200008c0:	bf00      	nop
200008c2:	bf00      	nop
200008c4:	bf00      	nop
200008c6:	bf00      	nop
200008c8:	bf00      	nop
200008ca:	bf00      	nop
200008cc:	bf00      	nop
200008ce:	bf00      	nop
200008d0:	bf00      	nop
200008d2:	bf00      	nop
200008d4:	bf00      	nop
200008d6:	bf00      	nop
200008d8:	bf00      	nop
200008da:	bf00      	nop
200008dc:	bf00      	nop
200008de:	bf00      	nop
200008e0:	bf00      	nop
200008e2:	bf00      	nop
200008e4:	bf00      	nop
200008e6:	bf00      	nop
200008e8:	bf00      	nop
200008ea:	bf00      	nop
200008ec:	bf00      	nop
200008ee:	bf00      	nop
200008f0:	bf00      	nop
200008f2:	bf00      	nop
200008f4:	bf00      	nop
200008f6:	bf00      	nop
200008f8:	bf00      	nop
200008fa:	bf00      	nop
200008fc:	bf00      	nop
200008fe:	bf00      	nop
20000900:	bf00      	nop
20000902:	bf00      	nop
20000904:	bf00      	nop
20000906:	bf00      	nop
20000908:	bf00      	nop
2000090a:	bf00      	nop
2000090c:	bf00      	nop
2000090e:	bf00      	nop
20000910:	bf00      	nop
20000912:	bf00      	nop
20000914:	bf00      	nop
20000916:	bf00      	nop
20000918:	bf00      	nop
2000091a:	bf00      	nop
2000091c:	bf00      	nop
2000091e:	bf00      	nop
20000920:	bf00      	nop
20000922:	bf00      	nop
20000924:	bf00      	nop
20000926:	bf00      	nop
20000928:	bf00      	nop
2000092a:	bf00      	nop
2000092c:	bf00      	nop
2000092e:	bf00      	nop
20000930:	bf00      	nop
20000932:	bf00      	nop
20000934:	bf00      	nop
20000936:	bf00      	nop
20000938:	bf00      	nop
2000093a:	bf00      	nop
2000093c:	bf00      	nop
2000093e:	bf00      	nop
20000940:	bf00      	nop
20000942:	bf00      	nop
20000944:	bf00      	nop
20000946:	bf00      	nop
20000948:	bf00      	nop
2000094a:	bf00      	nop
2000094c:	bf00      	nop
2000094e:	bf00      	nop
20000950:	bf00      	nop
20000952:	bf00      	nop
20000954:	bf00      	nop
20000956:	bf00      	nop
20000958:	bf00      	nop
2000095a:	bf00      	nop
2000095c:	bf00      	nop
2000095e:	bf00      	nop
20000960:	bf00      	nop
20000962:	bf00      	nop
20000964:	bf00      	nop
20000966:	bf00      	nop
20000968:	bf00      	nop
2000096a:	bf00      	nop
2000096c:	bf00      	nop
2000096e:	bf00      	nop
20000970:	bf00      	nop
20000972:	bf00      	nop
20000974:	bf00      	nop
20000976:	bf00      	nop
20000978:	bf00      	nop
2000097a:	bf00      	nop
2000097c:	bf00      	nop
2000097e:	bf00      	nop
20000980:	bf00      	nop
20000982:	bf00      	nop
20000984:	bf00      	nop
20000986:	bf00      	nop
20000988:	bf00      	nop
2000098a:	bf00      	nop
2000098c:	bf00      	nop
2000098e:	bf00      	nop
20000990:	bf00      	nop
20000992:	bf00      	nop
20000994:	bf00      	nop
20000996:	bf00      	nop
20000998:	bf00      	nop
2000099a:	bf00      	nop
2000099c:	bf00      	nop
2000099e:	bf00      	nop
200009a0:	bf00      	nop
200009a2:	bf00      	nop
200009a4:	bf00      	nop
200009a6:	bf00      	nop
200009a8:	bf00      	nop
200009aa:	bf00      	nop
200009ac:	bf00      	nop
200009ae:	bf00      	nop
200009b0:	bf00      	nop
200009b2:	bf00      	nop
200009b4:	bf00      	nop
200009b6:	bf00      	nop
200009b8:	bf00      	nop
200009ba:	bf00      	nop
200009bc:	bf00      	nop
200009be:	bf00      	nop
200009c0:	bf00      	nop
200009c2:	bf00      	nop
200009c4:	bf00      	nop
200009c6:	bf00      	nop
200009c8:	bf00      	nop
200009ca:	bf00      	nop
200009cc:	bf00      	nop
200009ce:	bf00      	nop
200009d0:	bf00      	nop
200009d2:	bf00      	nop
200009d4:	bf00      	nop
200009d6:	bf00      	nop
200009d8:	bf00      	nop
200009da:	bf00      	nop
200009dc:	bf00      	nop
200009de:	bf00      	nop
200009e0:	bf00      	nop
200009e2:	bf00      	nop
200009e4:	bf00      	nop
200009e6:	bf00      	nop
200009e8:	bf00      	nop
200009ea:	bf00      	nop
200009ec:	bf00      	nop
200009ee:	bf00      	nop
200009f0:	bf00      	nop
200009f2:	bf00      	nop
200009f4:	bf00      	nop
200009f6:	bf00      	nop
200009f8:	bf00      	nop
200009fa:	bf00      	nop
200009fc:	bf00      	nop
200009fe:	bf00      	nop
20000a00:	bf00      	nop
20000a02:	bf00      	nop
20000a04:	bf00      	nop
20000a06:	bf00      	nop
20000a08:	bf00      	nop
20000a0a:	bf00      	nop
20000a0c:	bf00      	nop
20000a0e:	bf00      	nop
20000a10:	bf00      	nop
20000a12:	bf00      	nop
20000a14:	bf00      	nop
20000a16:	bf00      	nop
20000a18:	bf00      	nop
20000a1a:	bf00      	nop
20000a1c:	bf00      	nop
20000a1e:	bf00      	nop
20000a20:	bf00      	nop
20000a22:	bf00      	nop
20000a24:	bf00      	nop
20000a26:	bf00      	nop
20000a28:	bf00      	nop
20000a2a:	bf00      	nop
20000a2c:	bf00      	nop
20000a2e:	bf00      	nop
20000a30:	bf00      	nop
20000a32:	bf00      	nop
20000a34:	bf00      	nop
20000a36:	bf00      	nop
20000a38:	bf00      	nop
20000a3a:	bf00      	nop
20000a3c:	bf00      	nop
20000a3e:	bf00      	nop
20000a40:	bf00      	nop
20000a42:	bf00      	nop
20000a44:	bf00      	nop
20000a46:	bf00      	nop
20000a48:	bf00      	nop
20000a4a:	bf00      	nop
20000a4c:	bf00      	nop
20000a4e:	bf00      	nop
20000a50:	2600      	movs	r6, #0
20000a52:	2313      	movs	r3, #19
20000a54:	ec46 3040 	gpioc_bit_out_put r3, r6
20000a58:	2011      	movs	r0, #17
20000a5a:	ec46 0040 	gpioc_bit_out_put r0, r6
20000a5e:	2705      	movs	r7, #5
20000a60:	463b      	mov	r3, r7
20000a62:	3b01      	subs	r3, #1
20000a64:	d1fd      	bne.n	20000a62 <start_hstx+0x20e>
20000a66:	2312      	movs	r3, #18
20000a68:	ec46 3040 	gpioc_bit_out_put r3, r6
20000a6c:	2510      	movs	r5, #16
20000a6e:	ec46 5040 	gpioc_bit_out_put r5, r6
20000a72:	230b      	movs	r3, #11
20000a74:	3b01      	subs	r3, #1
20000a76:	d1fd      	bne.n	20000a74 <start_hstx+0x220>
20000a78:	4631      	mov	r1, r6
20000a7a:	f000 f995 	bl	20000da8 <gpio_set_function>
20000a7e:	4631      	mov	r1, r6
20000a80:	4628      	mov	r0, r5
20000a82:	f000 f991 	bl	20000da8 <gpio_set_function>
20000a86:	2316      	movs	r3, #22
20000a88:	3b01      	subs	r3, #1
20000a8a:	d1fd      	bne.n	20000a88 <start_hstx+0x234>
20000a8c:	f04f 48a0 	mov.w	r8, #1342177280	@ 0x50000000
20000a90:	f8c8 d000 	str.w	sp, [r8]
20000a94:	2320      	movs	r3, #32
20000a96:	f8c8 301c 	str.w	r3, [r8, #28]
20000a9a:	230f      	movs	r3, #15
20000a9c:	ec46 3040 	gpioc_bit_out_put r3, r6
20000aa0:	200d      	movs	r0, #13
20000aa2:	ec46 0040 	gpioc_bit_out_put r0, r6
20000aa6:	3f01      	subs	r7, #1
20000aa8:	d1fd      	bne.n	20000aa6 <start_hstx+0x252>
20000aaa:	230e      	movs	r3, #14
20000aac:	ec46 3040 	gpioc_bit_out_put r3, r6
20000ab0:	270c      	movs	r7, #12
20000ab2:	ec46 7040 	gpioc_bit_out_put r7, r6
20000ab6:	3d01      	subs	r5, #1
20000ab8:	d1fd      	bne.n	20000ab6 <start_hstx+0x262>
20000aba:	4631      	mov	r1, r6
20000abc:	f000 f974 	bl	20000da8 <gpio_set_function>
20000ac0:	4631      	mov	r1, r6
20000ac2:	4638      	mov	r0, r7
20000ac4:	f000 f970 	bl	20000da8 <gpio_set_function>
20000ac8:	2301      	movs	r3, #1
20000aca:	f8c8 340c 	str.w	r3, [r8, #1036]	@ 0x40c
20000ace:	4a03      	ldr	r2, [pc, #12]	@ (20000adc <start_hstx+0x288>)
20000ad0:	f8c2 3404 	str.w	r3, [r2, #1028]	@ 0x404
20000ad4:	b008      	add	sp, #32
20000ad6:	e8bd 81f0 	ldmia.w	sp!, {r4, r5, r6, r7, r8, pc}
20000ada:	bf00      	nop
20000adc:	50002000 	.word	0x50002000

20000ae0 <channel_config_set_chain_to>:
20000ae0:	b508      	push	{r3, lr}
20000ae2:	2910      	cmp	r1, #16
20000ae4:	d806      	bhi.n	20000af4 <channel_config_set_chain_to+0x14>
20000ae6:	6803      	ldr	r3, [r0, #0]
20000ae8:	f423 33f0 	bic.w	r3, r3, #122880	@ 0x1e000
20000aec:	ea43 3141 	orr.w	r1, r3, r1, lsl #13
20000af0:	6001      	str	r1, [r0, #0]
20000af2:	bd08      	pop	{r3, pc}
20000af4:	4b02      	ldr	r3, [pc, #8]	@ (20000b00 <channel_config_set_chain_to+0x20>)
20000af6:	4a03      	ldr	r2, [pc, #12]	@ (20000b04 <channel_config_set_chain_to+0x24>)
20000af8:	21cd      	movs	r1, #205	@ 0xcd
20000afa:	4803      	ldr	r0, [pc, #12]	@ (20000b08 <channel_config_set_chain_to+0x28>)
20000afc:	f002 fc44 	bl	20003388 <__assert_func>
20000b00:	200050b4 	.word	0x200050b4
20000b04:	20005854 	.word	0x20005854
20000b08:	200050d4 	.word	0x200050d4

20000b0c <dma_channel_get_default_config>:
20000b0c:	b500      	push	{lr}
20000b0e:	b083      	sub	sp, #12
20000b10:	4601      	mov	r1, r0
20000b12:	2300      	movs	r3, #0
20000b14:	9301      	str	r3, [sp, #4]
20000b16:	2310      	movs	r3, #16
20000b18:	9301      	str	r3, [sp, #4]
20000b1a:	f503 03fc 	add.w	r3, r3, #8257536	@ 0x7e0000
20000b1e:	9301      	str	r3, [sp, #4]
20000b20:	a801      	add	r0, sp, #4
20000b22:	f7ff ffdd 	bl	20000ae0 <channel_config_set_chain_to>
20000b26:	9b01      	ldr	r3, [sp, #4]
20000b28:	f023 020c 	bic.w	r2, r3, #12
20000b2c:	f042 0208 	orr.w	r2, r2, #8
20000b30:	9201      	str	r2, [sp, #4]
20000b32:	f423 52f8 	bic.w	r2, r3, #7936	@ 0x1f00
20000b36:	f022 020c 	bic.w	r2, r2, #12
20000b3a:	f042 0208 	orr.w	r2, r2, #8
20000b3e:	9201      	str	r2, [sp, #4]
20000b40:	4a0c      	ldr	r2, [pc, #48]	@ (20000b74 <dma_channel_get_default_config+0x68>)
20000b42:	401a      	ands	r2, r3
20000b44:	f042 0208 	orr.w	r2, r2, #8
20000b48:	9201      	str	r2, [sp, #4]
20000b4a:	4a0b      	ldr	r2, [pc, #44]	@ (20000b78 <dma_channel_get_default_config+0x6c>)
20000b4c:	401a      	ands	r2, r3
20000b4e:	f042 0108 	orr.w	r1, r2, #8
20000b52:	9101      	str	r1, [sp, #4]
20000b54:	f042 0209 	orr.w	r2, r2, #9
20000b58:	9201      	str	r2, [sp, #4]
20000b5a:	4a08      	ldr	r2, [pc, #32]	@ (20000b7c <dma_channel_get_default_config+0x70>)
20000b5c:	401a      	ands	r2, r3
20000b5e:	f042 0209 	orr.w	r2, r2, #9
20000b62:	9201      	str	r2, [sp, #4]
20000b64:	4806      	ldr	r0, [pc, #24]	@ (20000b80 <dma_channel_get_default_config+0x74>)
20000b66:	4018      	ands	r0, r3
20000b68:	f040 0009 	orr.w	r0, r0, #9
20000b6c:	9001      	str	r0, [sp, #4]
20000b6e:	b003      	add	sp, #12
20000b70:	f85d fb04 	ldr.w	pc, [sp], #4
20000b74:	feffe0f3 	.word	0xfeffe0f3
20000b78:	fe7fe0f3 	.word	0xfe7fe0f3
20000b7c:	fc7fe0f3 	.word	0xfc7fe0f3
20000b80:	fc7fe0f1 	.word	0xfc7fe0f1

20000b84 <DMASetup>:
20000b84:	b510      	push	{r4, lr}
20000b86:	4604      	mov	r4, r0
20000b88:	2000      	movs	r0, #0
20000b8a:	f7ff ffbf 	bl	20000b0c <dma_channel_get_default_config>
20000b8e:	f420 03fc 	bic.w	r3, r0, #8257536	@ 0x7e0000
20000b92:	f023 030c 	bic.w	r3, r3, #12
20000b96:	f443 03d0 	orr.w	r3, r3, #6815744	@ 0x680000
20000b9a:	f043 0302 	orr.w	r3, r3, #2
20000b9e:	f04f 42a0 	mov.w	r2, #1342177280	@ 0x50000000
20000ba2:	6014      	str	r4, [r2, #0]
20000ba4:	4909      	ldr	r1, [pc, #36]	@ (20000bcc <DMASetup+0x48>)
20000ba6:	6051      	str	r1, [r2, #4]
20000ba8:	f44f 61b4 	mov.w	r1, #1440	@ 0x5a0
20000bac:	6091      	str	r1, [r2, #8]
20000bae:	6113      	str	r3, [r2, #16]
20000bb0:	4b07      	ldr	r3, [pc, #28]	@ (20000bd0 <DMASetup+0x4c>)
20000bb2:	f44f 5288 	mov.w	r2, #4352	@ 0x1100
20000bb6:	601a      	str	r2, [r3, #0]
20000bb8:	4906      	ldr	r1, [pc, #24]	@ (20000bd4 <DMASetup+0x50>)
20000bba:	200a      	movs	r0, #10
20000bbc:	f000 fa58 	bl	20001070 <irq_set_exclusive_handler>
20000bc0:	2101      	movs	r1, #1
20000bc2:	200a      	movs	r0, #10
20000bc4:	f000 fa42 	bl	2000104c <irq_set_enabled>
20000bc8:	bd10      	pop	{r4, pc}
20000bca:	bf00      	nop
20000bcc:	50600004 	.word	0x50600004
20000bd0:	40068000 	.word	0x40068000
20000bd4:	20004895 	.word	0x20004895

20000bd8 <mipi_init>:
20000bd8:	e92d 4ff8 	stmdb	sp!, {r3, r4, r5, r6, r7, r8, r9, sl, fp, lr}
20000bdc:	f7ff fd10 	bl	20000600 <stop_hstx>
20000be0:	2208      	movs	r2, #8
20000be2:	4b6a      	ldr	r3, [pc, #424]	@ (20000d8c <mipi_init+0x1b4>)
20000be4:	601a      	str	r2, [r3, #0]
20000be6:	486a      	ldr	r0, [pc, #424]	@ (20000d90 <mipi_init+0x1b8>)
20000be8:	6d43      	ldr	r3, [r0, #84]	@ 0x54
20000bea:	f083 0320 	eor.w	r3, r3, #32
20000bee:	f003 03e0 	and.w	r3, r3, #224	@ 0xe0
20000bf2:	4968      	ldr	r1, [pc, #416]	@ (20000d94 <mipi_init+0x1bc>)
20000bf4:	654b      	str	r3, [r1, #84]	@ 0x54
20000bf6:	6d83      	ldr	r3, [r0, #88]	@ 0x58
20000bf8:	f483 3380 	eor.w	r3, r3, #65536	@ 0x10000
20000bfc:	f403 3340 	and.w	r3, r3, #196608	@ 0x30000
20000c00:	658b      	str	r3, [r1, #88]	@ 0x58
20000c02:	4b65      	ldr	r3, [pc, #404]	@ (20000d98 <mipi_init+0x1c0>)
20000c04:	601a      	str	r2, [r3, #0]
20000c06:	4b65      	ldr	r3, [pc, #404]	@ (20000d9c <mipi_init+0x1c4>)
20000c08:	689b      	ldr	r3, [r3, #8]
20000c0a:	f013 0f08 	tst.w	r3, #8
20000c0e:	d0fa      	beq.n	20000c06 <mipi_init+0x2e>
20000c10:	2013      	movs	r0, #19
20000c12:	f000 f933 	bl	20000e7c <gpio_init>
20000c16:	2012      	movs	r0, #18
20000c18:	f000 f930 	bl	20000e7c <gpio_init>
20000c1c:	2200      	movs	r2, #0
20000c1e:	4611      	mov	r1, r2
20000c20:	2013      	movs	r0, #19
20000c22:	f000 f8dd 	bl	20000de0 <gpio_set_pulls>
20000c26:	2200      	movs	r2, #0
20000c28:	4611      	mov	r1, r2
20000c2a:	2012      	movs	r0, #18
20000c2c:	f000 f8d8 	bl	20000de0 <gpio_set_pulls>
20000c30:	2713      	movs	r7, #19
20000c32:	2501      	movs	r5, #1
20000c34:	ec45 7044 	gpioc_bit_oe_put r7, r5
20000c38:	2612      	movs	r6, #18
20000c3a:	ec45 6044 	gpioc_bit_oe_put r6, r5
20000c3e:	ec45 7040 	gpioc_bit_out_put r7, r5
20000c42:	ec45 6040 	gpioc_bit_out_put r6, r5
20000c46:	200f      	movs	r0, #15
20000c48:	f000 f918 	bl	20000e7c <gpio_init>
20000c4c:	200e      	movs	r0, #14
20000c4e:	f000 f915 	bl	20000e7c <gpio_init>
20000c52:	2200      	movs	r2, #0
20000c54:	4611      	mov	r1, r2
20000c56:	200f      	movs	r0, #15
20000c58:	f000 f8c2 	bl	20000de0 <gpio_set_pulls>
20000c5c:	2200      	movs	r2, #0
20000c5e:	4611      	mov	r1, r2
20000c60:	200e      	movs	r0, #14
20000c62:	f000 f8bd 	bl	20000de0 <gpio_set_pulls>
20000c66:	220f      	movs	r2, #15
20000c68:	ec45 2044 	gpioc_bit_oe_put r2, r5
20000c6c:	230e      	movs	r3, #14
20000c6e:	ec45 3044 	gpioc_bit_oe_put r3, r5
20000c72:	ec45 2040 	gpioc_bit_out_put r2, r5
20000c76:	ec45 3040 	gpioc_bit_out_put r3, r5
20000c7a:	200d      	movs	r0, #13
20000c7c:	f000 f8fe 	bl	20000e7c <gpio_init>
20000c80:	200c      	movs	r0, #12
20000c82:	f000 f8fb 	bl	20000e7c <gpio_init>
20000c86:	2200      	movs	r2, #0
20000c88:	4611      	mov	r1, r2
20000c8a:	200d      	movs	r0, #13
20000c8c:	f000 f8a8 	bl	20000de0 <gpio_set_pulls>
20000c90:	2200      	movs	r2, #0
20000c92:	4611      	mov	r1, r2
20000c94:	200c      	movs	r0, #12
20000c96:	f000 f8a3 	bl	20000de0 <gpio_set_pulls>
20000c9a:	f04f 090d 	mov.w	r9, #13
20000c9e:	ec45 9044 	gpioc_bit_oe_put r9, r5
20000ca2:	f04f 080c 	mov.w	r8, #12
20000ca6:	ec45 8044 	gpioc_bit_oe_put r8, r5
20000caa:	ec45 9040 	gpioc_bit_out_put r9, r5
20000cae:	ec45 8040 	gpioc_bit_out_put r8, r5
20000cb2:	2011      	movs	r0, #17
20000cb4:	f000 f8e2 	bl	20000e7c <gpio_init>
20000cb8:	2010      	movs	r0, #16
20000cba:	f000 f8df 	bl	20000e7c <gpio_init>
20000cbe:	2200      	movs	r2, #0
20000cc0:	4611      	mov	r1, r2
20000cc2:	2011      	movs	r0, #17
20000cc4:	f000 f88c 	bl	20000de0 <gpio_set_pulls>
20000cc8:	2200      	movs	r2, #0
20000cca:	4611      	mov	r1, r2
20000ccc:	2010      	movs	r0, #16
20000cce:	f000 f887 	bl	20000de0 <gpio_set_pulls>
20000cd2:	f04f 0b11 	mov.w	fp, #17
20000cd6:	ec45 b044 	gpioc_bit_oe_put fp, r5
20000cda:	f04f 0a10 	mov.w	sl, #16
20000cde:	ec45 a044 	gpioc_bit_oe_put sl, r5
20000ce2:	ec45 b040 	gpioc_bit_out_put fp, r5
20000ce6:	ec45 a040 	gpioc_bit_out_put sl, r5
20000cea:	4b2d      	ldr	r3, [pc, #180]	@ (20000da0 <mipi_init+0x1c8>)
20000cec:	f44f 3200 	mov.w	r2, #131072	@ 0x20000
20000cf0:	619a      	str	r2, [r3, #24]
20000cf2:	f44f 3240 	mov.w	r2, #196608	@ 0x30000
20000cf6:	615a      	str	r2, [r3, #20]
20000cf8:	f44f 7280 	mov.w	r2, #256	@ 0x100
20000cfc:	609a      	str	r2, [r3, #8]
20000cfe:	f502 3280 	add.w	r2, r2, #65536	@ 0x10000
20000d02:	605a      	str	r2, [r3, #4]
20000d04:	4a27      	ldr	r2, [pc, #156]	@ (20000da4 <mipi_init+0x1cc>)
20000d06:	601a      	str	r2, [r3, #0]
20000d08:	4629      	mov	r1, r5
20000d0a:	4658      	mov	r0, fp
20000d0c:	f000 f898 	bl	20000e40 <gpio_set_slew_rate>
20000d10:	4629      	mov	r1, r5
20000d12:	4650      	mov	r0, sl
20000d14:	f000 f894 	bl	20000e40 <gpio_set_slew_rate>
20000d18:	4629      	mov	r1, r5
20000d1a:	4648      	mov	r0, r9
20000d1c:	f000 f890 	bl	20000e40 <gpio_set_slew_rate>
20000d20:	4629      	mov	r1, r5
20000d22:	4640      	mov	r0, r8
20000d24:	f000 f88c 	bl	20000e40 <gpio_set_slew_rate>
20000d28:	4629      	mov	r1, r5
20000d2a:	4638      	mov	r0, r7
20000d2c:	f000 f888 	bl	20000e40 <gpio_set_slew_rate>
20000d30:	4629      	mov	r1, r5
20000d32:	4630      	mov	r0, r6
20000d34:	f000 f884 	bl	20000e40 <gpio_set_slew_rate>
20000d38:	4629      	mov	r1, r5
20000d3a:	4638      	mov	r0, r7
20000d3c:	f000 f880 	bl	20000e40 <gpio_set_slew_rate>
20000d40:	4629      	mov	r1, r5
20000d42:	4630      	mov	r0, r6
20000d44:	f000 f87c 	bl	20000e40 <gpio_set_slew_rate>
20000d48:	2103      	movs	r1, #3
20000d4a:	4638      	mov	r0, r7
20000d4c:	f000 f886 	bl	20000e5c <gpio_set_drive_strength>
20000d50:	2103      	movs	r1, #3
20000d52:	4630      	mov	r0, r6
20000d54:	f000 f882 	bl	20000e5c <gpio_set_drive_strength>
20000d58:	2103      	movs	r1, #3
20000d5a:	4638      	mov	r0, r7
20000d5c:	f000 f87e 	bl	20000e5c <gpio_set_drive_strength>
20000d60:	2103      	movs	r1, #3
20000d62:	4630      	mov	r0, r6
20000d64:	f000 f87a 	bl	20000e5c <gpio_set_drive_strength>
20000d68:	2103      	movs	r1, #3
20000d6a:	4658      	mov	r0, fp
20000d6c:	f000 f876 	bl	20000e5c <gpio_set_drive_strength>
20000d70:	2103      	movs	r1, #3
20000d72:	4650      	mov	r0, sl
20000d74:	f000 f872 	bl	20000e5c <gpio_set_drive_strength>
20000d78:	2103      	movs	r1, #3
20000d7a:	4648      	mov	r0, r9
20000d7c:	f000 f86e 	bl	20000e5c <gpio_set_drive_strength>
20000d80:	2103      	movs	r1, #3
20000d82:	4640      	mov	r0, r8
20000d84:	f000 f86a 	bl	20000e5c <gpio_set_drive_strength>
20000d88:	e8bd 8ff8 	ldmia.w	sp!, {r3, r4, r5, r6, r7, r8, r9, sl, fp, pc}
20000d8c:	40022000 	.word	0x40022000
20000d90:	40010000 	.word	0x40010000
20000d94:	40011000 	.word	0x40011000
20000d98:	40023000 	.word	0x40023000
20000d9c:	40020000 	.word	0x40020000
20000da0:	400c0000 	.word	0x400c0000
20000da4:	11040201 	.word	0x11040201

20000da8 <gpio_set_function>:
20000da8:	4b0c      	ldr	r3, [pc, #48]	@ (20000ddc <gpio_set_function+0x34>)
20000daa:	eb03 0280 	add.w	r2, r3, r0, lsl #2
20000dae:	f853 3020 	ldr.w	r3, [r3, r0, lsl #2]
20000db2:	f083 0340 	eor.w	r3, r3, #64	@ 0x40
20000db6:	f003 03c0 	and.w	r3, r3, #192	@ 0xc0
20000dba:	f502 5c80 	add.w	ip, r2, #4096	@ 0x1000
20000dbe:	f8cc 3000 	str.w	r3, [ip]
20000dc2:	00c0      	lsls	r0, r0, #3
20000dc4:	f100 4080 	add.w	r0, r0, #1073741824	@ 0x40000000
20000dc8:	f500 3020 	add.w	r0, r0, #163840	@ 0x28000
20000dcc:	6041      	str	r1, [r0, #4]
20000dce:	f502 5240 	add.w	r2, r2, #12288	@ 0x3000
20000dd2:	f44f 7380 	mov.w	r3, #256	@ 0x100
20000dd6:	6013      	str	r3, [r2, #0]
20000dd8:	4770      	bx	lr
20000dda:	bf00      	nop
20000ddc:	40038004 	.word	0x40038004

20000de0 <gpio_set_pulls>:
20000de0:	b410      	push	{r4}
20000de2:	4c0c      	ldr	r4, [pc, #48]	@ (20000e14 <gpio_set_pulls+0x34>)
20000de4:	eb04 0c80 	add.w	ip, r4, r0, lsl #2
20000de8:	b179      	cbz	r1, 20000e0a <gpio_set_pulls+0x2a>
20000dea:	2308      	movs	r3, #8
20000dec:	b17a      	cbz	r2, 20000e0e <gpio_set_pulls+0x2e>
20000dee:	2204      	movs	r2, #4
20000df0:	4313      	orrs	r3, r2
20000df2:	f854 2020 	ldr.w	r2, [r4, r0, lsl #2]
20000df6:	4053      	eors	r3, r2
20000df8:	f003 030c 	and.w	r3, r3, #12
20000dfc:	f50c 5c80 	add.w	ip, ip, #4096	@ 0x1000
20000e00:	f8cc 3000 	str.w	r3, [ip]
20000e04:	f85d 4b04 	ldr.w	r4, [sp], #4
20000e08:	4770      	bx	lr
20000e0a:	2300      	movs	r3, #0
20000e0c:	e7ee      	b.n	20000dec <gpio_set_pulls+0xc>
20000e0e:	2200      	movs	r2, #0
20000e10:	e7ee      	b.n	20000df0 <gpio_set_pulls+0x10>
20000e12:	bf00      	nop
20000e14:	40038004 	.word	0x40038004

20000e18 <gpio_set_input_hysteresis_enabled>:
20000e18:	b139      	cbz	r1, 20000e2a <gpio_set_input_hysteresis_enabled+0x12>
20000e1a:	4b08      	ldr	r3, [pc, #32]	@ (20000e3c <gpio_set_input_hysteresis_enabled+0x24>)
20000e1c:	eb03 0380 	add.w	r3, r3, r0, lsl #2
20000e20:	f503 5300 	add.w	r3, r3, #8192	@ 0x2000
20000e24:	2202      	movs	r2, #2
20000e26:	601a      	str	r2, [r3, #0]
20000e28:	4770      	bx	lr
20000e2a:	4b04      	ldr	r3, [pc, #16]	@ (20000e3c <gpio_set_input_hysteresis_enabled+0x24>)
20000e2c:	eb03 0380 	add.w	r3, r3, r0, lsl #2
20000e30:	f503 5340 	add.w	r3, r3, #12288	@ 0x3000
20000e34:	2202      	movs	r2, #2
20000e36:	601a      	str	r2, [r3, #0]
20000e38:	4770      	bx	lr
20000e3a:	bf00      	nop
20000e3c:	40038004 	.word	0x40038004

20000e40 <gpio_set_slew_rate>:
20000e40:	4a05      	ldr	r2, [pc, #20]	@ (20000e58 <gpio_set_slew_rate+0x18>)
20000e42:	eb02 0380 	add.w	r3, r2, r0, lsl #2
20000e46:	f852 2020 	ldr.w	r2, [r2, r0, lsl #2]
20000e4a:	4051      	eors	r1, r2
20000e4c:	f001 0101 	and.w	r1, r1, #1
20000e50:	f503 5380 	add.w	r3, r3, #4096	@ 0x1000
20000e54:	6019      	str	r1, [r3, #0]
20000e56:	4770      	bx	lr
20000e58:	40038004 	.word	0x40038004

20000e5c <gpio_set_drive_strength>:
20000e5c:	4b06      	ldr	r3, [pc, #24]	@ (20000e78 <gpio_set_drive_strength+0x1c>)
20000e5e:	eb03 0280 	add.w	r2, r3, r0, lsl #2
20000e62:	f853 3020 	ldr.w	r3, [r3, r0, lsl #2]
20000e66:	ea83 1301 	eor.w	r3, r3, r1, lsl #4
20000e6a:	f003 0330 	and.w	r3, r3, #48	@ 0x30
20000e6e:	f502 5280 	add.w	r2, r2, #4096	@ 0x1000
20000e72:	6013      	str	r3, [r2, #0]
20000e74:	4770      	bx	lr
20000e76:	bf00      	nop
20000e78:	40038004 	.word	0x40038004

20000e7c <gpio_init>:
20000e7c:	b508      	push	{r3, lr}
20000e7e:	f04f 0200 	mov.w	r2, #0
20000e82:	ec42 0044 	gpioc_bit_oe_put r0, r2
20000e86:	ec42 0040 	gpioc_bit_out_put r0, r2
20000e8a:	2105      	movs	r1, #5
20000e8c:	f7ff ff8c 	bl	20000da8 <gpio_set_function>
20000e90:	bd08      	pop	{r3, pc}
	...

20000e94 <panic>:
20000e94:	b40f      	push	{r0, r1, r2, r3}
20000e96:	b500      	push	{lr}
20000e98:	b083      	sub	sp, #12
20000e9a:	9c04      	ldr	r4, [sp, #16]
20000e9c:	4807      	ldr	r0, [pc, #28]	@ (20000ebc <panic+0x28>)
20000e9e:	f002 fb8d 	bl	200035bc <__wrap_puts>
20000ea2:	b13c      	cbz	r4, 20000eb4 <panic+0x20>
20000ea4:	a905      	add	r1, sp, #20
20000ea6:	9101      	str	r1, [sp, #4]
20000ea8:	4620      	mov	r0, r4
20000eaa:	f002 fb97 	bl	200035dc <__wrap_vprintf>
20000eae:	4804      	ldr	r0, [pc, #16]	@ (20000ec0 <panic+0x2c>)
20000eb0:	f002 fb84 	bl	200035bc <__wrap_puts>
20000eb4:	2001      	movs	r0, #1
20000eb6:	f002 fa61 	bl	2000337c <_exit>
20000eba:	bf00      	nop
20000ebc:	20005134 	.word	0x20005134
20000ec0:	20005144 	.word	0x20005144

20000ec4 <hw_claim_lock>:
20000ec4:	f3ef 8010 	mrs	r0, PRIMASK
20000ec8:	b672      	cpsid	i
20000eca:	4b06      	ldr	r3, [pc, #24]	@ (20000ee4 <hw_claim_lock+0x20>)
20000ecc:	e8d3 1fcf 	ldaexb	r1, [r3]
20000ed0:	2201      	movs	r2, #1
20000ed2:	2900      	cmp	r1, #0
20000ed4:	d1fa      	bne.n	20000ecc <hw_claim_lock+0x8>
20000ed6:	e8c3 2f41 	strexb	r1, r2, [r3]
20000eda:	2900      	cmp	r1, #0
20000edc:	d1f6      	bne.n	20000ecc <hw_claim_lock+0x8>
20000ede:	f3bf 8f5f 	dmb	sy
20000ee2:	4770      	bx	lr
20000ee4:	2000678b 	.word	0x2000678b

20000ee8 <hw_claim_unlock>:
20000ee8:	2300      	movs	r3, #0
20000eea:	4a03      	ldr	r2, [pc, #12]	@ (20000ef8 <hw_claim_unlock+0x10>)
20000eec:	e8c2 3f8f 	stlb	r3, [r2]
20000ef0:	f380 8810 	msr	PRIMASK, r0
20000ef4:	4770      	bx	lr
20000ef6:	bf00      	nop
20000ef8:	2000678b 	.word	0x2000678b

20000efc <hw_claim_or_assert>:
20000efc:	b570      	push	{r4, r5, r6, lr}
20000efe:	4605      	mov	r5, r0
20000f00:	460c      	mov	r4, r1
20000f02:	4616      	mov	r6, r2
20000f04:	f7ff ffde 	bl	20000ec4 <hw_claim_lock>
20000f08:	08e2      	lsrs	r2, r4, #3
20000f0a:	5ca9      	ldrb	r1, [r5, r2]
20000f0c:	f004 0c07 	and.w	ip, r4, #7
20000f10:	2301      	movs	r3, #1
20000f12:	fa03 f30c 	lsl.w	r3, r3, ip
20000f16:	4219      	tst	r1, r3
20000f18:	d105      	bne.n	20000f26 <hw_claim_or_assert+0x2a>
20000f1a:	b2db      	uxtb	r3, r3
20000f1c:	430b      	orrs	r3, r1
20000f1e:	54ab      	strb	r3, [r5, r2]
20000f20:	f7ff ffe2 	bl	20000ee8 <hw_claim_unlock>
20000f24:	bd70      	pop	{r4, r5, r6, pc}
20000f26:	4621      	mov	r1, r4
20000f28:	4630      	mov	r0, r6
20000f2a:	f7ff ffb3 	bl	20000e94 <panic>

20000f2e <hw_claim_unused_from_range>:
20000f2e:	b5f8      	push	{r3, r4, r5, r6, r7, lr}
20000f30:	4606      	mov	r6, r0
20000f32:	460d      	mov	r5, r1
20000f34:	4614      	mov	r4, r2
20000f36:	461f      	mov	r7, r3
20000f38:	f7ff ffc4 	bl	20000ec4 <hw_claim_lock>
20000f3c:	e000      	b.n	20000f40 <hw_claim_unused_from_range+0x12>
20000f3e:	3401      	adds	r4, #1
20000f40:	42bc      	cmp	r4, r7
20000f42:	d80e      	bhi.n	20000f62 <hw_claim_unused_from_range+0x34>
20000f44:	ea4f 0cd4 	mov.w	ip, r4, lsr #3
20000f48:	f816 100c 	ldrb.w	r1, [r6, ip]
20000f4c:	f004 0307 	and.w	r3, r4, #7
20000f50:	2201      	movs	r2, #1
20000f52:	409a      	lsls	r2, r3
20000f54:	4211      	tst	r1, r2
20000f56:	d1f2      	bne.n	20000f3e <hw_claim_unused_from_range+0x10>
20000f58:	b2d2      	uxtb	r2, r2
20000f5a:	430a      	orrs	r2, r1
20000f5c:	f806 200c 	strb.w	r2, [r6, ip]
20000f60:	e001      	b.n	20000f66 <hw_claim_unused_from_range+0x38>
20000f62:	f04f 34ff 	mov.w	r4, #4294967295
20000f66:	f7ff ffbf 	bl	20000ee8 <hw_claim_unlock>
20000f6a:	2c00      	cmp	r4, #0
20000f6c:	db01      	blt.n	20000f72 <hw_claim_unused_from_range+0x44>
20000f6e:	4620      	mov	r0, r4
20000f70:	bdf8      	pop	{r3, r4, r5, r6, r7, pc}
20000f72:	2d00      	cmp	r5, #0
20000f74:	d0fb      	beq.n	20000f6e <hw_claim_unused_from_range+0x40>
20000f76:	9806      	ldr	r0, [sp, #24]
20000f78:	f7ff ff8c 	bl	20000e94 <panic>

20000f7c <next_striped_spin_lock_num>:
20000f7c:	4a05      	ldr	r2, [pc, #20]	@ (20000f94 <next_striped_spin_lock_num+0x18>)
20000f7e:	7810      	ldrb	r0, [r2, #0]
20000f80:	1c43      	adds	r3, r0, #1
20000f82:	b2db      	uxtb	r3, r3
20000f84:	7013      	strb	r3, [r2, #0]
20000f86:	2b17      	cmp	r3, #23
20000f88:	d902      	bls.n	20000f90 <next_striped_spin_lock_num+0x14>
20000f8a:	4613      	mov	r3, r2
20000f8c:	2210      	movs	r2, #16
20000f8e:	701a      	strb	r2, [r3, #0]
20000f90:	4770      	bx	lr
20000f92:	bf00      	nop
20000f94:	20005a4d 	.word	0x20005a4d

20000f98 <spinlock_set_extexclall>:
20000f98:	f04f 22e0 	mov.w	r2, #3758153728	@ 0xe000e000
20000f9c:	6893      	ldr	r3, [r2, #8]
20000f9e:	f043 5300 	orr.w	r3, r3, #536870912	@ 0x20000000
20000fa2:	6093      	str	r3, [r2, #8]
20000fa4:	4770      	bx	lr
	...

20000fa8 <spin_locks_reset>:
20000fa8:	2300      	movs	r3, #0
20000faa:	e005      	b.n	20000fb8 <spin_locks_reset+0x10>
20000fac:	4a04      	ldr	r2, [pc, #16]	@ (20000fc0 <spin_locks_reset+0x18>)
20000fae:	441a      	add	r2, r3
20000fb0:	2100      	movs	r1, #0
20000fb2:	e8c2 1f8f 	stlb	r1, [r2]
20000fb6:	3301      	adds	r3, #1
20000fb8:	2b1f      	cmp	r3, #31
20000fba:	d9f7      	bls.n	20000fac <spin_locks_reset+0x4>
20000fbc:	4770      	bx	lr
20000fbe:	bf00      	nop
20000fc0:	20006780 	.word	0x20006780

20000fc4 <set_raw_irq_handler_and_unlock>:
20000fc4:	4b06      	ldr	r3, [pc, #24]	@ (20000fe0 <set_raw_irq_handler_and_unlock+0x1c>)
20000fc6:	689b      	ldr	r3, [r3, #8]
20000fc8:	3010      	adds	r0, #16
20000fca:	f843 1020 	str.w	r1, [r3, r0, lsl #2]
20000fce:	f3bf 8f5f 	dmb	sy
20000fd2:	2300      	movs	r3, #0
20000fd4:	4903      	ldr	r1, [pc, #12]	@ (20000fe4 <set_raw_irq_handler_and_unlock+0x20>)
20000fd6:	e8c1 3f8f 	stlb	r3, [r1]
20000fda:	f382 8810 	msr	PRIMASK, r2
20000fde:	4770      	bx	lr
20000fe0:	e000ed00 	.word	0xe000ed00
20000fe4:	20006789 	.word	0x20006789

20000fe8 <nvic_ipr0>:
20000fe8:	4800      	ldr	r0, [pc, #0]	@ (20000fec <nvic_ipr0+0x4>)
20000fea:	4770      	bx	lr
20000fec:	e000e400 	.word	0xe000e400

20000ff0 <runtime_init_per_core_irq_priorities>:
20000ff0:	b508      	push	{r3, lr}
20000ff2:	f7ff fff9 	bl	20000fe8 <nvic_ipr0>
20000ff6:	2300      	movs	r3, #0
20000ff8:	e004      	b.n	20001004 <runtime_init_per_core_irq_priorities+0x14>
20000ffa:	f04f 3280 	mov.w	r2, #2155905152	@ 0x80808080
20000ffe:	f840 2b04 	str.w	r2, [r0], #4
20001002:	3301      	adds	r3, #1
20001004:	2b0c      	cmp	r3, #12
20001006:	d9f8      	bls.n	20000ffa <runtime_init_per_core_irq_priorities+0xa>
20001008:	bd08      	pop	{r3, pc}
	...

2000100c <irq_is_enabled>:
2000100c:	0942      	lsrs	r2, r0, #5
2000100e:	4b06      	ldr	r3, [pc, #24]	@ (20001028 <irq_is_enabled+0x1c>)
20001010:	f853 3022 	ldr.w	r3, [r3, r2, lsl #2]
20001014:	f000 001f 	and.w	r0, r0, #31
20001018:	2201      	movs	r2, #1
2000101a:	4082      	lsls	r2, r0
2000101c:	ea03 0002 	and.w	r0, r3, r2
20001020:	3800      	subs	r0, #0
20001022:	bf18      	it	ne
20001024:	2001      	movne	r0, #1
20001026:	4770      	bx	lr
20001028:	e000e100 	.word	0xe000e100

2000102c <irq_set_mask_n_enabled>:
2000102c:	b13a      	cbz	r2, 2000103e <irq_set_mask_n_enabled+0x12>
2000102e:	4b06      	ldr	r3, [pc, #24]	@ (20001048 <irq_set_mask_n_enabled+0x1c>)
20001030:	f100 0260 	add.w	r2, r0, #96	@ 0x60
20001034:	f843 1022 	str.w	r1, [r3, r2, lsl #2]
20001038:	f843 1020 	str.w	r1, [r3, r0, lsl #2]
2000103c:	4770      	bx	lr
2000103e:	3020      	adds	r0, #32
20001040:	4b01      	ldr	r3, [pc, #4]	@ (20001048 <irq_set_mask_n_enabled+0x1c>)
20001042:	f843 1020 	str.w	r1, [r3, r0, lsl #2]
20001046:	4770      	bx	lr
20001048:	e000e100 	.word	0xe000e100

2000104c <irq_set_enabled>:
2000104c:	b508      	push	{r3, lr}
2000104e:	460a      	mov	r2, r1
20001050:	f000 031f 	and.w	r3, r0, #31
20001054:	2101      	movs	r1, #1
20001056:	4099      	lsls	r1, r3
20001058:	0940      	lsrs	r0, r0, #5
2000105a:	f7ff ffe7 	bl	2000102c <irq_set_mask_n_enabled>
2000105e:	bd08      	pop	{r3, pc}

20001060 <irq_get_vtable_handler>:
20001060:	4b02      	ldr	r3, [pc, #8]	@ (2000106c <irq_get_vtable_handler+0xc>)
20001062:	689b      	ldr	r3, [r3, #8]
20001064:	3010      	adds	r0, #16
20001066:	f853 0020 	ldr.w	r0, [r3, r0, lsl #2]
2000106a:	4770      	bx	lr
2000106c:	e000ed00 	.word	0xe000ed00

20001070 <irq_set_exclusive_handler>:
20001070:	b570      	push	{r4, r5, r6, lr}
20001072:	4605      	mov	r5, r0
20001074:	460c      	mov	r4, r1
20001076:	f3ef 8610 	mrs	r6, PRIMASK
2000107a:	b672      	cpsid	i
2000107c:	4b0f      	ldr	r3, [pc, #60]	@ (200010bc <irq_set_exclusive_handler+0x4c>)
2000107e:	e8d3 1fcf 	ldaexb	r1, [r3]
20001082:	2201      	movs	r2, #1
20001084:	2900      	cmp	r1, #0
20001086:	d1fa      	bne.n	2000107e <irq_set_exclusive_handler+0xe>
20001088:	e8c3 2f41 	strexb	r1, r2, [r3]
2000108c:	2900      	cmp	r1, #0
2000108e:	d1f6      	bne.n	2000107e <irq_set_exclusive_handler+0xe>
20001090:	f3bf 8f5f 	dmb	sy
20001094:	f7ff ffe4 	bl	20001060 <irq_get_vtable_handler>
20001098:	4b09      	ldr	r3, [pc, #36]	@ (200010c0 <irq_set_exclusive_handler+0x50>)
2000109a:	4298      	cmp	r0, r3
2000109c:	d001      	beq.n	200010a2 <irq_set_exclusive_handler+0x32>
2000109e:	42a0      	cmp	r0, r4
200010a0:	d105      	bne.n	200010ae <irq_set_exclusive_handler+0x3e>
200010a2:	4632      	mov	r2, r6
200010a4:	4621      	mov	r1, r4
200010a6:	4628      	mov	r0, r5
200010a8:	f7ff ff8c 	bl	20000fc4 <set_raw_irq_handler_and_unlock>
200010ac:	bd70      	pop	{r4, r5, r6, pc}
200010ae:	4b05      	ldr	r3, [pc, #20]	@ (200010c4 <irq_set_exclusive_handler+0x54>)
200010b0:	4a05      	ldr	r2, [pc, #20]	@ (200010c8 <irq_set_exclusive_handler+0x58>)
200010b2:	21e7      	movs	r1, #231	@ 0xe7
200010b4:	4805      	ldr	r0, [pc, #20]	@ (200010cc <irq_set_exclusive_handler+0x5c>)
200010b6:	f002 f967 	bl	20003388 <__assert_func>
200010ba:	bf00      	nop
200010bc:	20006789 	.word	0x20006789
200010c0:	1000011d 	.word	0x1000011d
200010c4:	200051a8 	.word	0x200051a8
200010c8:	20005878 	.word	0x20005878
200010cc:	20005160 	.word	0x20005160

200010d0 <lock_init>:
200010d0:	4b01      	ldr	r3, [pc, #4]	@ (200010d8 <lock_init+0x8>)
200010d2:	440b      	add	r3, r1
200010d4:	6003      	str	r3, [r0, #0]
200010d6:	4770      	bx	lr
200010d8:	20006780 	.word	0x20006780

200010dc <mutex_init>:
200010dc:	b510      	push	{r4, lr}
200010de:	4604      	mov	r4, r0
200010e0:	f7ff ff4c 	bl	20000f7c <next_striped_spin_lock_num>
200010e4:	4601      	mov	r1, r0
200010e6:	4620      	mov	r0, r4
200010e8:	f7ff fff2 	bl	200010d0 <lock_init>
200010ec:	23ff      	movs	r3, #255	@ 0xff
200010ee:	7123      	strb	r3, [r4, #4]
200010f0:	f3bf 8f5f 	dmb	sy
200010f4:	bd10      	pop	{r4, pc}

200010f6 <recursive_mutex_init>:
200010f6:	b510      	push	{r4, lr}
200010f8:	4604      	mov	r4, r0
200010fa:	f7ff ff3f 	bl	20000f7c <next_striped_spin_lock_num>
200010fe:	4601      	mov	r1, r0
20001100:	4620      	mov	r0, r4
20001102:	f7ff ffe5 	bl	200010d0 <lock_init>
20001106:	23ff      	movs	r3, #255	@ 0xff
20001108:	7123      	strb	r3, [r4, #4]
2000110a:	2300      	movs	r3, #0
2000110c:	7163      	strb	r3, [r4, #5]
2000110e:	f3bf 8f5f 	dmb	sy
20001112:	bd10      	pop	{r4, pc}

20001114 <runtime_init_mutex>:
20001114:	b510      	push	{r4, lr}
20001116:	4c0d      	ldr	r4, [pc, #52]	@ (2000114c <runtime_init_mutex+0x38>)
20001118:	e009      	b.n	2000112e <runtime_init_mutex+0x1a>
2000111a:	4b0d      	ldr	r3, [pc, #52]	@ (20001150 <runtime_init_mutex+0x3c>)
2000111c:	4a0d      	ldr	r2, [pc, #52]	@ (20001154 <runtime_init_mutex+0x40>)
2000111e:	211a      	movs	r1, #26
20001120:	480d      	ldr	r0, [pc, #52]	@ (20001158 <runtime_init_mutex+0x44>)
20001122:	f002 f931 	bl	20003388 <__assert_func>
20001126:	4620      	mov	r0, r4
20001128:	f7ff ffd8 	bl	200010dc <mutex_init>
2000112c:	3408      	adds	r4, #8
2000112e:	4b0b      	ldr	r3, [pc, #44]	@ (2000115c <runtime_init_mutex+0x48>)
20001130:	429c      	cmp	r4, r3
20001132:	d209      	bcs.n	20001148 <runtime_init_mutex+0x34>
20001134:	6823      	ldr	r3, [r4, #0]
20001136:	2b00      	cmp	r3, #0
20001138:	d0f5      	beq.n	20001126 <runtime_init_mutex+0x12>
2000113a:	2b01      	cmp	r3, #1
2000113c:	d1ed      	bne.n	2000111a <runtime_init_mutex+0x6>
2000113e:	4620      	mov	r0, r4
20001140:	f7ff ffd9 	bl	200010f6 <recursive_mutex_init>
20001144:	3408      	adds	r4, #8
20001146:	e7f2      	b.n	2000112e <runtime_init_mutex+0x1a>
20001148:	bd10      	pop	{r4, pc}
2000114a:	bf00      	nop
2000114c:	20005a68 	.word	0x20005a68
20001150:	200051e0 	.word	0x200051e0
20001154:	200058b8 	.word	0x200058b8
20001158:	20005200 	.word	0x20005200
2000115c:	20005a78 	.word	0x20005a78

20001160 <ta_from_current_irq>:
20001160:	4602      	mov	r2, r0
20001162:	f3ef 8305 	mrs	r3, IPSR
20001166:	b2db      	uxtb	r3, r3
20001168:	3b10      	subs	r3, #16
2000116a:	0899      	lsrs	r1, r3, #2
2000116c:	d004      	beq.n	20001178 <ta_from_current_irq+0x18>
2000116e:	4803      	ldr	r0, [pc, #12]	@ (2000117c <ta_from_current_irq+0x1c>)
20001170:	f003 0303 	and.w	r3, r3, #3
20001174:	6013      	str	r3, [r2, #0]
20001176:	4770      	bx	lr
20001178:	4801      	ldr	r0, [pc, #4]	@ (20001180 <ta_from_current_irq+0x20>)
2000117a:	e7f9      	b.n	20001170 <ta_from_current_irq+0x10>
2000117c:	400b8000 	.word	0x400b8000
20001180:	400b0000 	.word	0x400b0000

20001184 <ta_set_timeout>:
20001184:	b410      	push	{r4}
20001186:	6a84      	ldr	r4, [r0, #40]	@ 0x28
20001188:	eba2 0c04 	sub.w	ip, r2, r4
2000118c:	1d0b      	adds	r3, r1, #4
2000118e:	f850 3023 	ldr.w	r3, [r0, r3, lsl #2]
20001192:	1b1b      	subs	r3, r3, r4
20001194:	459c      	cmp	ip, r3
20001196:	d304      	bcc.n	200011a2 <ta_set_timeout+0x1e>
20001198:	6a04      	ldr	r4, [r0, #32]
2000119a:	2301      	movs	r3, #1
2000119c:	408b      	lsls	r3, r1
2000119e:	421c      	tst	r4, r3
200011a0:	d102      	bne.n	200011a8 <ta_set_timeout+0x24>
200011a2:	3104      	adds	r1, #4
200011a4:	f840 2021 	str.w	r2, [r0, r1, lsl #2]
200011a8:	f85d 4b04 	ldr.w	r4, [sp], #4
200011ac:	4770      	bx	lr

200011ae <make_alarm_id>:
200011ae:	ea41 4000 	orr.w	r0, r1, r0, lsl #16
200011b2:	4770      	bx	lr

200011b4 <sleep_until_callback>:
200011b4:	4b0d      	ldr	r3, [pc, #52]	@ (200011ec <sleep_until_callback+0x38>)
200011b6:	681a      	ldr	r2, [r3, #0]
200011b8:	f3ef 8110 	mrs	r1, PRIMASK
200011bc:	b672      	cpsid	i
200011be:	e8d2 cfcf 	ldaexb	ip, [r2]
200011c2:	2001      	movs	r0, #1
200011c4:	f1bc 0f00 	cmp.w	ip, #0
200011c8:	d1f9      	bne.n	200011be <sleep_until_callback+0xa>
200011ca:	e8c2 0f4c 	strexb	ip, r0, [r2]
200011ce:	f1bc 0f00 	cmp.w	ip, #0
200011d2:	d1f4      	bne.n	200011be <sleep_until_callback+0xa>
200011d4:	f3bf 8f5f 	dmb	sy
200011d8:	681a      	ldr	r2, [r3, #0]
200011da:	2300      	movs	r3, #0
200011dc:	e8c2 3f8f 	stlb	r3, [r2]
200011e0:	f381 8810 	msr	PRIMASK, r1
200011e4:	bf40      	sev
200011e6:	2000      	movs	r0, #0
200011e8:	2100      	movs	r1, #0
200011ea:	4770      	bx	lr
200011ec:	20070030 	.word	0x20070030

200011f0 <alarm_pool_irq_handler>:
200011f0:	e92d 4ff0 	stmdb	sp!, {r4, r5, r6, r7, r8, r9, sl, fp, lr}
200011f4:	b085      	sub	sp, #20
200011f6:	a803      	add	r0, sp, #12
200011f8:	f7ff ffb2 	bl	20001160 <ta_from_current_irq>
200011fc:	4b95      	ldr	r3, [pc, #596]	@ (20001454 <alarm_pool_irq_handler+0x264>)
200011fe:	4298      	cmp	r0, r3
20001200:	bf14      	ite	ne
20001202:	2300      	movne	r3, #0
20001204:	2301      	moveq	r3, #1
20001206:	9903      	ldr	r1, [sp, #12]
20001208:	eb01 0383 	add.w	r3, r1, r3, lsl #2
2000120c:	4a92      	ldr	r2, [pc, #584]	@ (20001458 <alarm_pool_irq_handler+0x268>)
2000120e:	f852 4023 	ldr.w	r4, [r2, r3, lsl #2]
20001212:	7823      	ldrb	r3, [r4, #0]
20001214:	4299      	cmp	r1, r3
20001216:	d106      	bne.n	20001226 <alarm_pool_irq_handler+0x36>
20001218:	4605      	mov	r5, r0
2000121a:	2201      	movs	r2, #1
2000121c:	408a      	lsls	r2, r1
2000121e:	f500 5341 	add.w	r3, r0, #12352	@ 0x3040
20001222:	605a      	str	r2, [r3, #4]
20001224:	e12c      	b.n	20001480 <alarm_pool_irq_handler+0x290>
20001226:	4b8d      	ldr	r3, [pc, #564]	@ (2000145c <alarm_pool_irq_handler+0x26c>)
20001228:	4a8d      	ldr	r2, [pc, #564]	@ (20001460 <alarm_pool_irq_handler+0x270>)
2000122a:	2192      	movs	r1, #146	@ 0x92
2000122c:	488d      	ldr	r0, [pc, #564]	@ (20001464 <alarm_pool_irq_handler+0x274>)
2000122e:	f002 f8ab 	bl	20003388 <__assert_func>
20001232:	f8d4 9014 	ldr.w	r9, [r4, #20]
20001236:	eb06 0746 	add.w	r7, r6, r6, lsl #1
2000123a:	ea4f 0ac7 	mov.w	sl, r7, lsl #3
2000123e:	eb09 07c7 	add.w	r7, r9, r7, lsl #3
20001242:	f8d7 b008 	ldr.w	fp, [r7, #8]
20001246:	f8d7 800c 	ldr.w	r8, [r7, #12]
2000124a:	4628      	mov	r0, r5
2000124c:	f000 fb32 	bl	200018b4 <timer_time_us_64>
20001250:	ebb0 000b 	subs.w	r0, r0, fp
20001254:	eb61 0308 	sbc.w	r3, r1, r8
20001258:	2b00      	cmp	r3, #0
2000125a:	f2c0 811a 	blt.w	20001492 <alarm_pool_irq_handler+0x2a2>
2000125e:	f1b8 0f00 	cmp.w	r8, #0
20001262:	db64      	blt.n	2000132e <alarm_pool_irq_handler+0x13e>
20001264:	693b      	ldr	r3, [r7, #16]
20001266:	461a      	mov	r2, r3
20001268:	9300      	str	r3, [sp, #0]
2000126a:	4b7f      	ldr	r3, [pc, #508]	@ (20001468 <alarm_pool_irq_handler+0x278>)
2000126c:	429a      	cmp	r2, r3
2000126e:	d030      	beq.n	200012d2 <alarm_pool_irq_handler+0xe2>
20001270:	8879      	ldrh	r1, [r7, #2]
20001272:	b289      	uxth	r1, r1
20001274:	f9b4 0008 	ldrsh.w	r0, [r4, #8]
20001278:	f7ff ff99 	bl	200011ae <make_alarm_id>
2000127c:	6979      	ldr	r1, [r7, #20]
2000127e:	9b00      	ldr	r3, [sp, #0]
20001280:	4798      	blx	r3
20001282:	9000      	str	r0, [sp, #0]
20001284:	9101      	str	r1, [sp, #4]
20001286:	9900      	ldr	r1, [sp, #0]
20001288:	9a01      	ldr	r2, [sp, #4]
2000128a:	ea51 0302 	orrs.w	r3, r1, r2
2000128e:	d04e      	beq.n	2000132e <alarm_pool_irq_handler+0x13e>
20001290:	4613      	mov	r3, r2
20001292:	2a00      	cmp	r2, #0
20001294:	da29      	bge.n	200012ea <alarm_pool_irq_handler+0xfa>
20001296:	ebbb 0201 	subs.w	r2, fp, r1
2000129a:	eb68 0803 	sbc.w	r8, r8, r3
2000129e:	60ba      	str	r2, [r7, #8]
200012a0:	f8c7 800c 	str.w	r8, [r7, #12]
200012a4:	f939 700a 	ldrsh.w	r7, [r9, sl]
200012a8:	2f00      	cmp	r7, #0
200012aa:	f2c0 80f2 	blt.w	20001492 <alarm_pool_irq_handler+0x2a2>
200012ae:	f8d4 e014 	ldr.w	lr, [r4, #20]
200012b2:	eb07 0347 	add.w	r3, r7, r7, lsl #1
200012b6:	eb0e 03c3 	add.w	r3, lr, r3, lsl #3
200012ba:	6899      	ldr	r1, [r3, #8]
200012bc:	68db      	ldr	r3, [r3, #12]
200012be:	1a51      	subs	r1, r2, r1
200012c0:	eb68 0303 	sbc.w	r3, r8, r3
200012c4:	2b00      	cmp	r3, #0
200012c6:	f2c0 80e4 	blt.w	20001492 <alarm_pool_irq_handler+0x2a2>
200012ca:	46a4      	mov	ip, r4
200012cc:	f82c 7f08 	strh.w	r7, [ip, #8]!
200012d0:	e017      	b.n	20001302 <alarm_pool_irq_handler+0x112>
200012d2:	697a      	ldr	r2, [r7, #20]
200012d4:	6913      	ldr	r3, [r2, #16]
200012d6:	9200      	str	r2, [sp, #0]
200012d8:	4610      	mov	r0, r2
200012da:	4798      	blx	r3
200012dc:	b338      	cbz	r0, 2000132e <alarm_pool_irq_handler+0x13e>
200012de:	9a00      	ldr	r2, [sp, #0]
200012e0:	6813      	ldr	r3, [r2, #0]
200012e2:	9300      	str	r3, [sp, #0]
200012e4:	6853      	ldr	r3, [r2, #4]
200012e6:	9301      	str	r3, [sp, #4]
200012e8:	e7cd      	b.n	20001286 <alarm_pool_irq_handler+0x96>
200012ea:	4628      	mov	r0, r5
200012ec:	f000 fae2 	bl	200018b4 <timer_time_us_64>
200012f0:	9b00      	ldr	r3, [sp, #0]
200012f2:	181a      	adds	r2, r3, r0
200012f4:	9b01      	ldr	r3, [sp, #4]
200012f6:	eb43 0801 	adc.w	r8, r3, r1
200012fa:	e7d0      	b.n	2000129e <alarm_pool_irq_handler+0xae>
200012fc:	469c      	mov	ip, r3
200012fe:	f93e 700b 	ldrsh.w	r7, [lr, fp]
20001302:	2f00      	cmp	r7, #0
20001304:	db0e      	blt.n	20001324 <alarm_pool_irq_handler+0x134>
20001306:	f9bc 3000 	ldrsh.w	r3, [ip]
2000130a:	eb03 0343 	add.w	r3, r3, r3, lsl #1
2000130e:	ea4f 0bc3 	mov.w	fp, r3, lsl #3
20001312:	eb0e 03c3 	add.w	r3, lr, r3, lsl #3
20001316:	6898      	ldr	r0, [r3, #8]
20001318:	68d9      	ldr	r1, [r3, #12]
2000131a:	1a10      	subs	r0, r2, r0
2000131c:	eb68 0101 	sbc.w	r1, r8, r1
20001320:	2900      	cmp	r1, #0
20001322:	daeb      	bge.n	200012fc <alarm_pool_irq_handler+0x10c>
20001324:	f829 700a 	strh.w	r7, [r9, sl]
20001328:	f8ac 6000 	strh.w	r6, [ip]
2000132c:	e0b1      	b.n	20001492 <alarm_pool_irq_handler+0x2a2>
2000132e:	f939 300a 	ldrsh.w	r3, [r9, sl]
20001332:	8123      	strh	r3, [r4, #8]
20001334:	6923      	ldr	r3, [r4, #16]
20001336:	f3ef 8210 	mrs	r2, PRIMASK
2000133a:	b672      	cpsid	i
2000133c:	e8d3 0fcf 	ldaexb	r0, [r3]
20001340:	2101      	movs	r1, #1
20001342:	2800      	cmp	r0, #0
20001344:	d1fa      	bne.n	2000133c <alarm_pool_irq_handler+0x14c>
20001346:	e8c3 1f40 	strexb	r0, r1, [r3]
2000134a:	2800      	cmp	r0, #0
2000134c:	d1f6      	bne.n	2000133c <alarm_pool_irq_handler+0x14c>
2000134e:	f3bf 8f5f 	dmb	sy
20001352:	f9b4 3002 	ldrsh.w	r3, [r4, #2]
20001356:	f829 300a 	strh.w	r3, [r9, sl]
2000135a:	8066      	strh	r6, [r4, #2]
2000135c:	6921      	ldr	r1, [r4, #16]
2000135e:	2300      	movs	r3, #0
20001360:	e8c1 3f8f 	stlb	r3, [r1]
20001364:	f382 8810 	msr	PRIMASK, r2
20001368:	e093      	b.n	20001492 <alarm_pool_irq_handler+0x2a2>
2000136a:	6923      	ldr	r3, [r4, #16]
2000136c:	f3ef 8210 	mrs	r2, PRIMASK
20001370:	b672      	cpsid	i
20001372:	e8d3 0fcf 	ldaexb	r0, [r3]
20001376:	2101      	movs	r1, #1
20001378:	2800      	cmp	r0, #0
2000137a:	d1fa      	bne.n	20001372 <alarm_pool_irq_handler+0x182>
2000137c:	e8c3 1f40 	strexb	r0, r1, [r3]
20001380:	2800      	cmp	r0, #0
20001382:	d1f6      	bne.n	20001372 <alarm_pool_irq_handler+0x182>
20001384:	f3bf 8f5f 	dmb	sy
20001388:	f8b4 8004 	ldrh.w	r8, [r4, #4]
2000138c:	fa0f f888 	sxth.w	r8, r8
20001390:	f64f 73ff 	movw	r3, #65535	@ 0xffff
20001394:	80a3      	strh	r3, [r4, #4]
20001396:	6921      	ldr	r1, [r4, #16]
20001398:	2300      	movs	r3, #0
2000139a:	e8c1 3f8f 	stlb	r3, [r1]
2000139e:	f382 8810 	msr	PRIMASK, r2
200013a2:	e01a      	b.n	200013da <alarm_pool_irq_handler+0x1ea>
200013a4:	461f      	mov	r7, r3
200013a6:	f930 600a 	ldrsh.w	r6, [r0, sl]
200013aa:	2e00      	cmp	r6, #0
200013ac:	db0f      	blt.n	200013ce <alarm_pool_irq_handler+0x1de>
200013ae:	f9b7 3000 	ldrsh.w	r3, [r7]
200013b2:	eb03 0343 	add.w	r3, r3, r3, lsl #1
200013b6:	ea4f 0ac3 	mov.w	sl, r3, lsl #3
200013ba:	eb00 03c3 	add.w	r3, r0, r3, lsl #3
200013be:	6899      	ldr	r1, [r3, #8]
200013c0:	68da      	ldr	r2, [r3, #12]
200013c2:	ebbc 0101 	subs.w	r1, ip, r1
200013c6:	eb6e 0202 	sbc.w	r2, lr, r2
200013ca:	2a00      	cmp	r2, #0
200013cc:	daea      	bge.n	200013a4 <alarm_pool_irq_handler+0x1b4>
200013ce:	f8a7 8000 	strh.w	r8, [r7]
200013d2:	f930 8009 	ldrsh.w	r8, [r0, r9]
200013d6:	f820 6009 	strh.w	r6, [r0, r9]
200013da:	f1b8 0f00 	cmp.w	r8, #0
200013de:	db5d      	blt.n	2000149c <alarm_pool_irq_handler+0x2ac>
200013e0:	6960      	ldr	r0, [r4, #20]
200013e2:	eb08 0348 	add.w	r3, r8, r8, lsl #1
200013e6:	ea4f 09c3 	mov.w	r9, r3, lsl #3
200013ea:	eb00 03c3 	add.w	r3, r0, r3, lsl #3
200013ee:	f8d3 c008 	ldr.w	ip, [r3, #8]
200013f2:	f8d3 e00c 	ldr.w	lr, [r3, #12]
200013f6:	f104 0708 	add.w	r7, r4, #8
200013fa:	f9b4 6008 	ldrsh.w	r6, [r4, #8]
200013fe:	e7d4      	b.n	200013aa <alarm_pool_irq_handler+0x1ba>
20001400:	2300      	movs	r3, #0
20001402:	71a3      	strb	r3, [r4, #6]
20001404:	f104 0c08 	add.w	ip, r4, #8
20001408:	f9b4 3008 	ldrsh.w	r3, [r4, #8]
2000140c:	e010      	b.n	20001430 <alarm_pool_irq_handler+0x240>
2000140e:	f04f 38ff 	mov.w	r8, #4294967295
20001412:	f04f 39ff 	mov.w	r9, #4294967295
20001416:	e9c0 8902 	strd	r8, r9, [r0, #8]
2000141a:	f9b4 0008 	ldrsh.w	r0, [r4, #8]
2000141e:	4298      	cmp	r0, r3
20001420:	d005      	beq.n	2000142e <alarm_pool_irq_handler+0x23e>
20001422:	f8ac 2000 	strh.w	r2, [ip]
20001426:	f9b4 0008 	ldrsh.w	r0, [r4, #8]
2000142a:	53c8      	strh	r0, [r1, r7]
2000142c:	8123      	strh	r3, [r4, #8]
2000142e:	4613      	mov	r3, r2
20001430:	f1b3 3fff 	cmp.w	r3, #4294967295
20001434:	d035      	beq.n	200014a2 <alarm_pool_irq_handler+0x2b2>
20001436:	6961      	ldr	r1, [r4, #20]
20001438:	eb03 0243 	add.w	r2, r3, r3, lsl #1
2000143c:	00d7      	lsls	r7, r2, #3
2000143e:	eb01 00c2 	add.w	r0, r1, r2, lsl #3
20001442:	f931 2032 	ldrsh.w	r2, [r1, r2, lsl #3]
20001446:	8846      	ldrh	r6, [r0, #2]
20001448:	f416 4f00 	tst.w	r6, #32768	@ 0x8000
2000144c:	d1df      	bne.n	2000140e <alarm_pool_irq_handler+0x21e>
2000144e:	4684      	mov	ip, r0
20001450:	e7ed      	b.n	2000142e <alarm_pool_irq_handler+0x23e>
20001452:	bf00      	nop
20001454:	400b8000 	.word	0x400b8000
20001458:	2006cef4 	.word	0x2006cef4
2000145c:	20005294 	.word	0x20005294
20001460:	200058e4 	.word	0x200058e4
20001464:	200052c0 	.word	0x200052c0
20001468:	200011f1 	.word	0x200011f1
2000146c:	4628      	mov	r0, r5
2000146e:	f000 fa21 	bl	200018b4 <timer_time_us_64>
20001472:	1a3f      	subs	r7, r7, r0
20001474:	eb66 0601 	sbc.w	r6, r6, r1
20001478:	2f01      	cmp	r7, #1
2000147a:	f176 0600 	sbcs.w	r6, r6, #0
2000147e:	da28      	bge.n	200014d2 <alarm_pool_irq_handler+0x2e2>
20001480:	9a03      	ldr	r2, [sp, #12]
20001482:	2301      	movs	r3, #1
20001484:	4093      	lsls	r3, r2
20001486:	63eb      	str	r3, [r5, #60]	@ 0x3c
20001488:	f9b4 6008 	ldrsh.w	r6, [r4, #8]
2000148c:	2e00      	cmp	r6, #0
2000148e:	f6bf aed0 	bge.w	20001232 <alarm_pool_irq_handler+0x42>
20001492:	88a3      	ldrh	r3, [r4, #4]
20001494:	f413 4f00 	tst.w	r3, #32768	@ 0x8000
20001498:	f43f af67 	beq.w	2000136a <alarm_pool_irq_handler+0x17a>
2000149c:	79a3      	ldrb	r3, [r4, #6]
2000149e:	2b00      	cmp	r3, #0
200014a0:	d1ae      	bne.n	20001400 <alarm_pool_irq_handler+0x210>
200014a2:	f9b4 3008 	ldrsh.w	r3, [r4, #8]
200014a6:	2b00      	cmp	r3, #0
200014a8:	db13      	blt.n	200014d2 <alarm_pool_irq_handler+0x2e2>
200014aa:	6962      	ldr	r2, [r4, #20]
200014ac:	eb03 0343 	add.w	r3, r3, r3, lsl #1
200014b0:	eb02 03c3 	add.w	r3, r2, r3, lsl #3
200014b4:	689f      	ldr	r7, [r3, #8]
200014b6:	68de      	ldr	r6, [r3, #12]
200014b8:	f1b6 3fff 	cmp.w	r6, #4294967295
200014bc:	bf08      	it	eq
200014be:	f1b7 3fff 	cmpeq.w	r7, #4294967295
200014c2:	d0d3      	beq.n	2000146c <alarm_pool_irq_handler+0x27c>
200014c4:	463a      	mov	r2, r7
200014c6:	4633      	mov	r3, r6
200014c8:	9903      	ldr	r1, [sp, #12]
200014ca:	4628      	mov	r0, r5
200014cc:	f7ff fe5a 	bl	20001184 <ta_set_timeout>
200014d0:	e7cc      	b.n	2000146c <alarm_pool_irq_handler+0x27c>
200014d2:	bf40      	sev
200014d4:	b005      	add	sp, #20
200014d6:	e8bd 8ff0 	ldmia.w	sp!, {r4, r5, r6, r7, r8, r9, sl, fp, pc}
200014da:	bf00      	nop

200014dc <ta_enable_irq_handler>:
200014dc:	b5f8      	push	{r3, r4, r5, r6, r7, lr}
200014de:	4604      	mov	r4, r0
200014e0:	460d      	mov	r5, r1
200014e2:	4611      	mov	r1, r2
200014e4:	4b0a      	ldr	r3, [pc, #40]	@ (20001510 <ta_enable_irq_handler+0x34>)
200014e6:	4298      	cmp	r0, r3
200014e8:	d010      	beq.n	2000150c <ta_enable_irq_handler+0x30>
200014ea:	2600      	movs	r6, #0
200014ec:	442e      	add	r6, r5
200014ee:	2701      	movs	r7, #1
200014f0:	fa07 f505 	lsl.w	r5, r7, r5
200014f4:	6225      	str	r5, [r4, #32]
200014f6:	4630      	mov	r0, r6
200014f8:	f7ff fdba 	bl	20001070 <irq_set_exclusive_handler>
200014fc:	4639      	mov	r1, r7
200014fe:	4630      	mov	r0, r6
20001500:	f7ff fda4 	bl	2000104c <irq_set_enabled>
20001504:	f504 5401 	add.w	r4, r4, #8256	@ 0x2040
20001508:	6025      	str	r5, [r4, #0]
2000150a:	bdf8      	pop	{r3, r4, r5, r6, r7, pc}
2000150c:	2604      	movs	r6, #4
2000150e:	e7ed      	b.n	200014ec <ta_enable_irq_handler+0x10>
20001510:	400b8000 	.word	0x400b8000

20001514 <alarm_pool_post_alloc_init>:
20001514:	b5f8      	push	{r3, r4, r5, r6, r7, lr}
20001516:	4604      	mov	r4, r0
20001518:	460e      	mov	r6, r1
2000151a:	4617      	mov	r7, r2
2000151c:	461d      	mov	r5, r3
2000151e:	60c1      	str	r1, [r0, #12]
20001520:	f7ff fd2c 	bl	20000f7c <next_striped_spin_lock_num>
20001524:	4b16      	ldr	r3, [pc, #88]	@ (20001580 <alarm_pool_post_alloc_init+0x6c>)
20001526:	4403      	add	r3, r0
20001528:	6123      	str	r3, [r4, #16]
2000152a:	7027      	strb	r7, [r4, #0]
2000152c:	b2ab      	uxth	r3, r5
2000152e:	8163      	strh	r3, [r4, #10]
20001530:	f04f 4250 	mov.w	r2, #3489660928	@ 0xd0000000
20001534:	7812      	ldrb	r2, [r2, #0]
20001536:	7062      	strb	r2, [r4, #1]
20001538:	f64f 72ff 	movw	r2, #65535	@ 0xffff
2000153c:	8122      	strh	r2, [r4, #8]
2000153e:	80a2      	strh	r2, [r4, #4]
20001540:	3b01      	subs	r3, #1
20001542:	8063      	strh	r3, [r4, #2]
20001544:	f04f 0c00 	mov.w	ip, #0
20001548:	e008      	b.n	2000155c <alarm_pool_post_alloc_init+0x48>
2000154a:	f10c 30ff 	add.w	r0, ip, #4294967295
2000154e:	eb0c 0e4c 	add.w	lr, ip, ip, lsl #1
20001552:	6963      	ldr	r3, [r4, #20]
20001554:	f823 003e 	strh.w	r0, [r3, lr, lsl #3]
20001558:	f10c 0c01 	add.w	ip, ip, #1
2000155c:	45ac      	cmp	ip, r5
2000155e:	d3f4      	bcc.n	2000154a <alarm_pool_post_alloc_init+0x36>
20001560:	4b08      	ldr	r3, [pc, #32]	@ (20001584 <alarm_pool_post_alloc_init+0x70>)
20001562:	429e      	cmp	r6, r3
20001564:	bf14      	ite	ne
20001566:	2300      	movne	r3, #0
20001568:	2301      	moveq	r3, #1
2000156a:	eb07 0383 	add.w	r3, r7, r3, lsl #2
2000156e:	4a06      	ldr	r2, [pc, #24]	@ (20001588 <alarm_pool_post_alloc_init+0x74>)
20001570:	f842 4023 	str.w	r4, [r2, r3, lsl #2]
20001574:	4a05      	ldr	r2, [pc, #20]	@ (2000158c <alarm_pool_post_alloc_init+0x78>)
20001576:	4639      	mov	r1, r7
20001578:	4630      	mov	r0, r6
2000157a:	f7ff ffaf 	bl	200014dc <ta_enable_irq_handler>
2000157e:	bdf8      	pop	{r3, r4, r5, r6, r7, pc}
20001580:	20006780 	.word	0x20006780
20001584:	400b8000 	.word	0x400b8000
20001588:	2006cef4 	.word	0x2006cef4
2000158c:	200011f1 	.word	0x200011f1

20001590 <alarm_pool_get_default>:
20001590:	b508      	push	{r3, lr}
20001592:	4b05      	ldr	r3, [pc, #20]	@ (200015a8 <alarm_pool_get_default+0x18>)
20001594:	691b      	ldr	r3, [r3, #16]
20001596:	b10b      	cbz	r3, 2000159c <alarm_pool_get_default+0xc>
20001598:	4803      	ldr	r0, [pc, #12]	@ (200015a8 <alarm_pool_get_default+0x18>)
2000159a:	bd08      	pop	{r3, pc}
2000159c:	4b03      	ldr	r3, [pc, #12]	@ (200015ac <alarm_pool_get_default+0x1c>)
2000159e:	4a04      	ldr	r2, [pc, #16]	@ (200015b0 <alarm_pool_get_default+0x20>)
200015a0:	2165      	movs	r1, #101	@ 0x65
200015a2:	4804      	ldr	r0, [pc, #16]	@ (200015b4 <alarm_pool_get_default+0x24>)
200015a4:	f001 fef0 	bl	20003388 <__assert_func>
200015a8:	20005a50 	.word	0x20005a50
200015ac:	20005300 	.word	0x20005300
200015b0:	200058cc 	.word	0x200058cc
200015b4:	200052c0 	.word	0x200052c0

200015b8 <alarm_pool_add_alarm_at_force_in_context>:
200015b8:	b5f8      	push	{r3, r4, r5, r6, r7, lr}
200015ba:	4604      	mov	r4, r0
200015bc:	469e      	mov	lr, r3
200015be:	6900      	ldr	r0, [r0, #16]
200015c0:	f3ef 8110 	mrs	r1, PRIMASK
200015c4:	b672      	cpsid	i
200015c6:	e8d0 6fcf 	ldaexb	r6, [r0]
200015ca:	2501      	movs	r5, #1
200015cc:	2e00      	cmp	r6, #0
200015ce:	d1fa      	bne.n	200015c6 <alarm_pool_add_alarm_at_force_in_context+0xe>
200015d0:	e8c0 5f46 	strexb	r6, r5, [r0]
200015d4:	2e00      	cmp	r6, #0
200015d6:	d1f6      	bne.n	200015c6 <alarm_pool_add_alarm_at_force_in_context+0xe>
200015d8:	f3bf 8f5f 	dmb	sy
200015dc:	f9b4 5002 	ldrsh.w	r5, [r4, #2]
200015e0:	6966      	ldr	r6, [r4, #20]
200015e2:	eb05 0045 	add.w	r0, r5, r5, lsl #1
200015e6:	00c7      	lsls	r7, r0, #3
200015e8:	eb06 00c0 	add.w	r0, r6, r0, lsl #3
200015ec:	2d00      	cmp	r5, #0
200015ee:	db03      	blt.n	200015f8 <alarm_pool_add_alarm_at_force_in_context+0x40>
200015f0:	f936 c007 	ldrsh.w	ip, [r6, r7]
200015f4:	f8a4 c002 	strh.w	ip, [r4, #2]
200015f8:	f04f 0c00 	mov.w	ip, #0
200015fc:	6923      	ldr	r3, [r4, #16]
200015fe:	e8c3 cf8f 	stlb	ip, [r3]
20001602:	f381 8810 	msr	PRIMASK, r1
20001606:	4565      	cmp	r5, ip
20001608:	db33      	blt.n	20001672 <alarm_pool_add_alarm_at_force_in_context+0xba>
2000160a:	9906      	ldr	r1, [sp, #24]
2000160c:	6101      	str	r1, [r0, #16]
2000160e:	9907      	ldr	r1, [sp, #28]
20001610:	6141      	str	r1, [r0, #20]
20001612:	6082      	str	r2, [r0, #8]
20001614:	f8c0 e00c 	str.w	lr, [r0, #12]
20001618:	8841      	ldrh	r1, [r0, #2]
2000161a:	b289      	uxth	r1, r1
2000161c:	3101      	adds	r1, #1
2000161e:	f3c1 010e 	ubfx	r1, r1, #0, #15
20001622:	b901      	cbnz	r1, 20001626 <alarm_pool_add_alarm_at_force_in_context+0x6e>
20001624:	2101      	movs	r1, #1
20001626:	8041      	strh	r1, [r0, #2]
20001628:	4628      	mov	r0, r5
2000162a:	f7ff fdc0 	bl	200011ae <make_alarm_id>
2000162e:	6923      	ldr	r3, [r4, #16]
20001630:	f3ef 8210 	mrs	r2, PRIMASK
20001634:	b672      	cpsid	i
20001636:	e8d3 cfcf 	ldaexb	ip, [r3]
2000163a:	2101      	movs	r1, #1
2000163c:	f1bc 0f00 	cmp.w	ip, #0
20001640:	d1f9      	bne.n	20001636 <alarm_pool_add_alarm_at_force_in_context+0x7e>
20001642:	e8c3 1f4c 	strexb	ip, r1, [r3]
20001646:	f1bc 0f00 	cmp.w	ip, #0
2000164a:	d1f4      	bne.n	20001636 <alarm_pool_add_alarm_at_force_in_context+0x7e>
2000164c:	f3bf 8f5f 	dmb	sy
20001650:	88a3      	ldrh	r3, [r4, #4]
20001652:	53f3      	strh	r3, [r6, r7]
20001654:	80a5      	strh	r5, [r4, #4]
20001656:	6921      	ldr	r1, [r4, #16]
20001658:	2300      	movs	r3, #0
2000165a:	e8c1 3f8f 	stlb	r3, [r1]
2000165e:	f382 8810 	msr	PRIMASK, r2
20001662:	68e3      	ldr	r3, [r4, #12]
20001664:	7821      	ldrb	r1, [r4, #0]
20001666:	2201      	movs	r2, #1
20001668:	408a      	lsls	r2, r1
2000166a:	f503 5301 	add.w	r3, r3, #8256	@ 0x2040
2000166e:	605a      	str	r2, [r3, #4]
20001670:	bdf8      	pop	{r3, r4, r5, r6, r7, pc}
20001672:	f04f 30ff 	mov.w	r0, #4294967295
20001676:	e7fb      	b.n	20001670 <alarm_pool_add_alarm_at_force_in_context+0xb8>

20001678 <alarm_pool_add_alarm_at>:
20001678:	b570      	push	{r4, r5, r6, lr}
2000167a:	b082      	sub	sp, #8
2000167c:	4606      	mov	r6, r0
2000167e:	4615      	mov	r5, r2
20001680:	461c      	mov	r4, r3
20001682:	f89d 3020 	ldrb.w	r3, [sp, #32]
20001686:	b933      	cbnz	r3, 20001696 <alarm_pool_add_alarm_at+0x1e>
20001688:	f000 f91c 	bl	200018c4 <time_us_64>
2000168c:	4285      	cmp	r5, r0
2000168e:	eb64 0101 	sbc.w	r1, r4, r1
20001692:	2900      	cmp	r1, #0
20001694:	db0a      	blt.n	200016ac <alarm_pool_add_alarm_at+0x34>
20001696:	9b07      	ldr	r3, [sp, #28]
20001698:	9301      	str	r3, [sp, #4]
2000169a:	9b06      	ldr	r3, [sp, #24]
2000169c:	9300      	str	r3, [sp, #0]
2000169e:	462a      	mov	r2, r5
200016a0:	4623      	mov	r3, r4
200016a2:	4630      	mov	r0, r6
200016a4:	f7ff ff88 	bl	200015b8 <alarm_pool_add_alarm_at_force_in_context>
200016a8:	b002      	add	sp, #8
200016aa:	bd70      	pop	{r4, r5, r6, pc}
200016ac:	2000      	movs	r0, #0
200016ae:	e7fb      	b.n	200016a8 <alarm_pool_add_alarm_at+0x30>

200016b0 <add_alarm_at>:
200016b0:	b5f0      	push	{r4, r5, r6, r7, lr}
200016b2:	b085      	sub	sp, #20
200016b4:	4605      	mov	r5, r0
200016b6:	460c      	mov	r4, r1
200016b8:	4616      	mov	r6, r2
200016ba:	461f      	mov	r7, r3
200016bc:	f7ff ff68 	bl	20001590 <alarm_pool_get_default>
200016c0:	f89d 3028 	ldrb.w	r3, [sp, #40]	@ 0x28
200016c4:	9302      	str	r3, [sp, #8]
200016c6:	9701      	str	r7, [sp, #4]
200016c8:	9600      	str	r6, [sp, #0]
200016ca:	462a      	mov	r2, r5
200016cc:	4623      	mov	r3, r4
200016ce:	f7ff ffd3 	bl	20001678 <alarm_pool_add_alarm_at>
200016d2:	b005      	add	sp, #20
200016d4:	bdf0      	pop	{r4, r5, r6, r7, pc}

200016d6 <alarm_pool_cancel_alarm>:
200016d6:	4603      	mov	r3, r0
200016d8:	8940      	ldrh	r0, [r0, #10]
200016da:	ebb0 4f21 	cmp.w	r0, r1, asr #16
200016de:	dd31      	ble.n	20001744 <alarm_pool_cancel_alarm+0x6e>
200016e0:	b510      	push	{r4, lr}
200016e2:	140a      	asrs	r2, r1, #16
200016e4:	6958      	ldr	r0, [r3, #20]
200016e6:	eb02 0242 	add.w	r2, r2, r2, lsl #1
200016ea:	eb00 00c2 	add.w	r0, r0, r2, lsl #3
200016ee:	691a      	ldr	r2, [r3, #16]
200016f0:	f3ef 8c10 	mrs	ip, PRIMASK
200016f4:	b672      	cpsid	i
200016f6:	e8d2 4fcf 	ldaexb	r4, [r2]
200016fa:	f05f 0e01 	movs.w	lr, #1
200016fe:	2c00      	cmp	r4, #0
20001700:	d1f9      	bne.n	200016f6 <alarm_pool_cancel_alarm+0x20>
20001702:	e8c2 ef44 	strexb	r4, lr, [r2]
20001706:	2c00      	cmp	r4, #0
20001708:	d1f5      	bne.n	200016f6 <alarm_pool_cancel_alarm+0x20>
2000170a:	f3bf 8f5f 	dmb	sy
2000170e:	8842      	ldrh	r2, [r0, #2]
20001710:	b292      	uxth	r2, r2
20001712:	b289      	uxth	r1, r1
20001714:	428a      	cmp	r2, r1
20001716:	d00f      	beq.n	20001738 <alarm_pool_cancel_alarm+0x62>
20001718:	2000      	movs	r0, #0
2000171a:	6919      	ldr	r1, [r3, #16]
2000171c:	2200      	movs	r2, #0
2000171e:	e8c1 2f8f 	stlb	r2, [r1]
20001722:	f38c 8810 	msr	PRIMASK, ip
20001726:	b130      	cbz	r0, 20001736 <alarm_pool_cancel_alarm+0x60>
20001728:	68da      	ldr	r2, [r3, #12]
2000172a:	781b      	ldrb	r3, [r3, #0]
2000172c:	2101      	movs	r1, #1
2000172e:	4099      	lsls	r1, r3
20001730:	f502 5301 	add.w	r3, r2, #8256	@ 0x2040
20001734:	6059      	str	r1, [r3, #4]
20001736:	bd10      	pop	{r4, pc}
20001738:	f442 4200 	orr.w	r2, r2, #32768	@ 0x8000
2000173c:	8042      	strh	r2, [r0, #2]
2000173e:	2001      	movs	r0, #1
20001740:	7198      	strb	r0, [r3, #6]
20001742:	e7ea      	b.n	2000171a <alarm_pool_cancel_alarm+0x44>
20001744:	2000      	movs	r0, #0
20001746:	4770      	bx	lr

20001748 <cancel_alarm>:
20001748:	b510      	push	{r4, lr}
2000174a:	4604      	mov	r4, r0
2000174c:	f7ff ff20 	bl	20001590 <alarm_pool_get_default>
20001750:	4621      	mov	r1, r4
20001752:	f7ff ffc0 	bl	200016d6 <alarm_pool_cancel_alarm>
20001756:	bd10      	pop	{r4, pc}

20001758 <best_effort_wfe_or_timeout>:
20001758:	b5f0      	push	{r4, r5, r6, r7, lr}
2000175a:	b083      	sub	sp, #12
2000175c:	4605      	mov	r5, r0
2000175e:	460c      	mov	r4, r1
20001760:	f3ef 8305 	mrs	r3, IPSR
20001764:	b2db      	uxtb	r3, r3
20001766:	b193      	cbz	r3, 2000178e <best_effort_wfe_or_timeout+0x36>
20001768:	4b38      	ldr	r3, [pc, #224]	@ (2000184c <best_effort_wfe_or_timeout+0xf4>)
2000176a:	6a5b      	ldr	r3, [r3, #36]	@ 0x24
2000176c:	428b      	cmp	r3, r1
2000176e:	d309      	bcc.n	20001784 <best_effort_wfe_or_timeout+0x2c>
20001770:	4a36      	ldr	r2, [pc, #216]	@ (2000184c <best_effort_wfe_or_timeout+0xf4>)
20001772:	6a92      	ldr	r2, [r2, #40]	@ 0x28
20001774:	4282      	cmp	r2, r0
20001776:	d208      	bcs.n	2000178a <best_effort_wfe_or_timeout+0x32>
20001778:	428b      	cmp	r3, r1
2000177a:	d001      	beq.n	20001780 <best_effort_wfe_or_timeout+0x28>
2000177c:	2001      	movs	r0, #1
2000177e:	e002      	b.n	20001786 <best_effort_wfe_or_timeout+0x2e>
20001780:	2000      	movs	r0, #0
20001782:	e000      	b.n	20001786 <best_effort_wfe_or_timeout+0x2e>
20001784:	2000      	movs	r0, #0
20001786:	b003      	add	sp, #12
20001788:	bdf0      	pop	{r4, r5, r6, r7, pc}
2000178a:	2001      	movs	r0, #1
2000178c:	e7fb      	b.n	20001786 <best_effort_wfe_or_timeout+0x2e>
2000178e:	f7ff feff 	bl	20001590 <alarm_pool_get_default>
20001792:	68c7      	ldr	r7, [r0, #12]
20001794:	7806      	ldrb	r6, [r0, #0]
20001796:	4638      	mov	r0, r7
20001798:	f000 f88c 	bl	200018b4 <timer_time_us_64>
2000179c:	1a2a      	subs	r2, r5, r0
2000179e:	eb64 0101 	sbc.w	r1, r4, r1
200017a2:	3604      	adds	r6, #4
200017a4:	f857 3026 	ldr.w	r3, [r7, r6, lsl #2]
200017a8:	1a1b      	subs	r3, r3, r0
200017aa:	429a      	cmp	r2, r3
200017ac:	f171 0100 	sbcs.w	r1, r1, #0
200017b0:	db12      	blt.n	200017d8 <best_effort_wfe_or_timeout+0x80>
200017b2:	bf20      	wfe
200017b4:	4b25      	ldr	r3, [pc, #148]	@ (2000184c <best_effort_wfe_or_timeout+0xf4>)
200017b6:	6a5b      	ldr	r3, [r3, #36]	@ 0x24
200017b8:	429c      	cmp	r4, r3
200017ba:	d809      	bhi.n	200017d0 <best_effort_wfe_or_timeout+0x78>
200017bc:	4a23      	ldr	r2, [pc, #140]	@ (2000184c <best_effort_wfe_or_timeout+0xf4>)
200017be:	6a92      	ldr	r2, [r2, #40]	@ 0x28
200017c0:	42aa      	cmp	r2, r5
200017c2:	d207      	bcs.n	200017d4 <best_effort_wfe_or_timeout+0x7c>
200017c4:	429c      	cmp	r4, r3
200017c6:	d001      	beq.n	200017cc <best_effort_wfe_or_timeout+0x74>
200017c8:	2001      	movs	r0, #1
200017ca:	e7dc      	b.n	20001786 <best_effort_wfe_or_timeout+0x2e>
200017cc:	2000      	movs	r0, #0
200017ce:	e7da      	b.n	20001786 <best_effort_wfe_or_timeout+0x2e>
200017d0:	2000      	movs	r0, #0
200017d2:	e7d8      	b.n	20001786 <best_effort_wfe_or_timeout+0x2e>
200017d4:	2001      	movs	r0, #1
200017d6:	e7d6      	b.n	20001786 <best_effort_wfe_or_timeout+0x2e>
200017d8:	2300      	movs	r3, #0
200017da:	9300      	str	r3, [sp, #0]
200017dc:	4a1c      	ldr	r2, [pc, #112]	@ (20001850 <best_effort_wfe_or_timeout+0xf8>)
200017de:	4628      	mov	r0, r5
200017e0:	4621      	mov	r1, r4
200017e2:	f7ff ff65 	bl	200016b0 <add_alarm_at>
200017e6:	2800      	cmp	r0, #0
200017e8:	dd18      	ble.n	2000181c <best_effort_wfe_or_timeout+0xc4>
200017ea:	4b18      	ldr	r3, [pc, #96]	@ (2000184c <best_effort_wfe_or_timeout+0xf4>)
200017ec:	6a5b      	ldr	r3, [r3, #36]	@ 0x24
200017ee:	429c      	cmp	r4, r3
200017f0:	d805      	bhi.n	200017fe <best_effort_wfe_or_timeout+0xa6>
200017f2:	4a16      	ldr	r2, [pc, #88]	@ (2000184c <best_effort_wfe_or_timeout+0xf4>)
200017f4:	6a92      	ldr	r2, [r2, #40]	@ 0x28
200017f6:	42aa      	cmp	r2, r5
200017f8:	d202      	bcs.n	20001800 <best_effort_wfe_or_timeout+0xa8>
200017fa:	429c      	cmp	r4, r3
200017fc:	d100      	bne.n	20001800 <best_effort_wfe_or_timeout+0xa8>
200017fe:	bf20      	wfe
20001800:	f7ff ffa2 	bl	20001748 <cancel_alarm>
20001804:	4b11      	ldr	r3, [pc, #68]	@ (2000184c <best_effort_wfe_or_timeout+0xf4>)
20001806:	6a5b      	ldr	r3, [r3, #36]	@ 0x24
20001808:	429c      	cmp	r4, r3
2000180a:	d81b      	bhi.n	20001844 <best_effort_wfe_or_timeout+0xec>
2000180c:	4a0f      	ldr	r2, [pc, #60]	@ (2000184c <best_effort_wfe_or_timeout+0xf4>)
2000180e:	6a92      	ldr	r2, [r2, #40]	@ 0x28
20001810:	42aa      	cmp	r2, r5
20001812:	d219      	bcs.n	20001848 <best_effort_wfe_or_timeout+0xf0>
20001814:	429c      	cmp	r4, r3
20001816:	d013      	beq.n	20001840 <best_effort_wfe_or_timeout+0xe8>
20001818:	2001      	movs	r0, #1
2000181a:	e7b4      	b.n	20001786 <best_effort_wfe_or_timeout+0x2e>
2000181c:	4b0b      	ldr	r3, [pc, #44]	@ (2000184c <best_effort_wfe_or_timeout+0xf4>)
2000181e:	6a5b      	ldr	r3, [r3, #36]	@ 0x24
20001820:	429c      	cmp	r4, r3
20001822:	d809      	bhi.n	20001838 <best_effort_wfe_or_timeout+0xe0>
20001824:	4a09      	ldr	r2, [pc, #36]	@ (2000184c <best_effort_wfe_or_timeout+0xf4>)
20001826:	6a92      	ldr	r2, [r2, #40]	@ 0x28
20001828:	42aa      	cmp	r2, r5
2000182a:	d207      	bcs.n	2000183c <best_effort_wfe_or_timeout+0xe4>
2000182c:	429c      	cmp	r4, r3
2000182e:	d001      	beq.n	20001834 <best_effort_wfe_or_timeout+0xdc>
20001830:	2001      	movs	r0, #1
20001832:	e7a8      	b.n	20001786 <best_effort_wfe_or_timeout+0x2e>
20001834:	2000      	movs	r0, #0
20001836:	e7a6      	b.n	20001786 <best_effort_wfe_or_timeout+0x2e>
20001838:	2000      	movs	r0, #0
2000183a:	e7a4      	b.n	20001786 <best_effort_wfe_or_timeout+0x2e>
2000183c:	2001      	movs	r0, #1
2000183e:	e7a2      	b.n	20001786 <best_effort_wfe_or_timeout+0x2e>
20001840:	2000      	movs	r0, #0
20001842:	e7a0      	b.n	20001786 <best_effort_wfe_or_timeout+0x2e>
20001844:	2000      	movs	r0, #0
20001846:	e79e      	b.n	20001786 <best_effort_wfe_or_timeout+0x2e>
20001848:	2001      	movs	r0, #1
2000184a:	e79c      	b.n	20001786 <best_effort_wfe_or_timeout+0x2e>
2000184c:	400b0000 	.word	0x400b0000
20001850:	200011b5 	.word	0x200011b5

20001854 <alarm_pool_get_default_timer>:
20001854:	4800      	ldr	r0, [pc, #0]	@ (20001858 <alarm_pool_get_default_timer+0x4>)
20001856:	4770      	bx	lr
20001858:	400b0000 	.word	0x400b0000

2000185c <runtime_init_default_alarm_pool>:
2000185c:	b510      	push	{r4, lr}
2000185e:	4b0a      	ldr	r3, [pc, #40]	@ (20001888 <runtime_init_default_alarm_pool+0x2c>)
20001860:	691b      	ldr	r3, [r3, #16]
20001862:	b123      	cbz	r3, 2000186e <runtime_init_default_alarm_pool+0x12>
20001864:	210a      	movs	r1, #10
20001866:	4809      	ldr	r0, [pc, #36]	@ (2000188c <runtime_init_default_alarm_pool+0x30>)
20001868:	f7ff fc32 	bl	200010d0 <lock_init>
2000186c:	bd10      	pop	{r4, pc}
2000186e:	f7ff fff1 	bl	20001854 <alarm_pool_get_default_timer>
20001872:	4604      	mov	r4, r0
20001874:	2103      	movs	r1, #3
20001876:	f000 f80b 	bl	20001890 <timer_hardware_alarm_claim>
2000187a:	2310      	movs	r3, #16
2000187c:	2203      	movs	r2, #3
2000187e:	4621      	mov	r1, r4
20001880:	4801      	ldr	r0, [pc, #4]	@ (20001888 <runtime_init_default_alarm_pool+0x2c>)
20001882:	f7ff fe47 	bl	20001514 <alarm_pool_post_alloc_init>
20001886:	e7ed      	b.n	20001864 <runtime_init_default_alarm_pool+0x8>
20001888:	20005a50 	.word	0x20005a50
2000188c:	20070030 	.word	0x20070030

20001890 <timer_hardware_alarm_claim>:
20001890:	b510      	push	{r4, lr}
20001892:	4a05      	ldr	r2, [pc, #20]	@ (200018a8 <timer_hardware_alarm_claim+0x18>)
20001894:	4c05      	ldr	r4, [pc, #20]	@ (200018ac <timer_hardware_alarm_claim+0x1c>)
20001896:	4b06      	ldr	r3, [pc, #24]	@ (200018b0 <timer_hardware_alarm_claim+0x20>)
20001898:	42a0      	cmp	r0, r4
2000189a:	bf14      	ite	ne
2000189c:	4618      	movne	r0, r3
2000189e:	1c58      	addeq	r0, r3, #1
200018a0:	f7ff fb2c 	bl	20000efc <hw_claim_or_assert>
200018a4:	bd10      	pop	{r4, pc}
200018a6:	bf00      	nop
200018a8:	20005324 	.word	0x20005324
200018ac:	400b8000 	.word	0x400b8000
200018b0:	20006e4c 	.word	0x20006e4c

200018b4 <timer_time_us_64>:
200018b4:	4602      	mov	r2, r0
200018b6:	6a43      	ldr	r3, [r0, #36]	@ 0x24
200018b8:	6a90      	ldr	r0, [r2, #40]	@ 0x28
200018ba:	4619      	mov	r1, r3
200018bc:	6a53      	ldr	r3, [r2, #36]	@ 0x24
200018be:	4299      	cmp	r1, r3
200018c0:	d1fa      	bne.n	200018b8 <timer_time_us_64+0x4>
200018c2:	4770      	bx	lr

200018c4 <time_us_64>:
200018c4:	b508      	push	{r3, lr}
200018c6:	4802      	ldr	r0, [pc, #8]	@ (200018d0 <time_us_64+0xc>)
200018c8:	f7ff fff4 	bl	200018b4 <timer_time_us_64>
200018cc:	bd08      	pop	{r3, pc}
200018ce:	bf00      	nop
200018d0:	400b0000 	.word	0x400b0000

200018d4 <clock_configure_internal>:
200018d4:	b570      	push	{r4, r5, r6, lr}
200018d6:	4616      	mov	r6, r2
200018d8:	9d04      	ldr	r5, [sp, #16]
200018da:	eb00 0c40 	add.w	ip, r0, r0, lsl #1
200018de:	ea4f 0c8c 	mov.w	ip, ip, lsl #2
200018e2:	f10c 4c80 	add.w	ip, ip, #1073741824	@ 0x40000000
200018e6:	f50c 3c80 	add.w	ip, ip, #65536	@ 0x10000
200018ea:	f8dc 2004 	ldr.w	r2, [ip, #4]
200018ee:	42aa      	cmp	r2, r5
200018f0:	d201      	bcs.n	200018f6 <clock_configure_internal+0x22>
200018f2:	f8cc 5004 	str.w	r5, [ip, #4]
200018f6:	f1a0 0e04 	sub.w	lr, r0, #4
200018fa:	fa5f fe8e 	uxtb.w	lr, lr
200018fe:	f1be 0f01 	cmp.w	lr, #1
20001902:	d928      	bls.n	20001956 <clock_configure_internal+0x82>
20001904:	f50c 5240 	add.w	r2, ip, #12288	@ 0x3000
20001908:	f44f 6400 	mov.w	r4, #2048	@ 0x800
2000190c:	6014      	str	r4, [r2, #0]
2000190e:	4a1e      	ldr	r2, [pc, #120]	@ (20001988 <clock_configure_internal+0xb4>)
20001910:	f852 2020 	ldr.w	r2, [r2, r0, lsl #2]
20001914:	b142      	cbz	r2, 20001928 <clock_configure_internal+0x54>
20001916:	4c1c      	ldr	r4, [pc, #112]	@ (20001988 <clock_configure_internal+0xb4>)
20001918:	6964      	ldr	r4, [r4, #20]
2000191a:	fbb4 f4f2 	udiv	r4, r4, r2
2000191e:	3401      	adds	r4, #1
20001920:	eb04 0444 	add.w	r4, r4, r4, lsl #1
20001924:	3c03      	subs	r4, #3
20001926:	d2fd      	bcs.n	20001924 <clock_configure_internal+0x50>
20001928:	f8dc 2000 	ldr.w	r2, [ip]
2000192c:	ea82 1246 	eor.w	r2, r2, r6, lsl #5
20001930:	f002 02e0 	and.w	r2, r2, #224	@ 0xe0
20001934:	f50c 5480 	add.w	r4, ip, #4096	@ 0x1000
20001938:	6022      	str	r2, [r4, #0]
2000193a:	f1be 0f01 	cmp.w	lr, #1
2000193e:	d916      	bls.n	2000196e <clock_configure_internal+0x9a>
20001940:	f50c 5200 	add.w	r2, ip, #8192	@ 0x2000
20001944:	f44f 6100 	mov.w	r1, #2048	@ 0x800
20001948:	6011      	str	r1, [r2, #0]
2000194a:	f8cc 5004 	str.w	r5, [ip, #4]
2000194e:	4a0e      	ldr	r2, [pc, #56]	@ (20001988 <clock_configure_internal+0xb4>)
20001950:	f842 3020 	str.w	r3, [r2, r0, lsl #2]
20001954:	bd70      	pop	{r4, r5, r6, pc}
20001956:	2901      	cmp	r1, #1
20001958:	d1d4      	bne.n	20001904 <clock_configure_internal+0x30>
2000195a:	f50c 5240 	add.w	r2, ip, #12288	@ 0x3000
2000195e:	2403      	movs	r4, #3
20001960:	6014      	str	r4, [r2, #0]
20001962:	f8dc 2008 	ldr.w	r2, [ip, #8]
20001966:	f012 0f01 	tst.w	r2, #1
2000196a:	d0fa      	beq.n	20001962 <clock_configure_internal+0x8e>
2000196c:	e7dc      	b.n	20001928 <clock_configure_internal+0x54>
2000196e:	f8dc 2000 	ldr.w	r2, [ip]
20001972:	404a      	eors	r2, r1
20001974:	f002 0203 	and.w	r2, r2, #3
20001978:	6022      	str	r2, [r4, #0]
2000197a:	f8dc 4008 	ldr.w	r4, [ip, #8]
2000197e:	2201      	movs	r2, #1
20001980:	408a      	lsls	r2, r1
20001982:	4214      	tst	r4, r2
20001984:	d0f9      	beq.n	2000197a <clock_configure_internal+0xa6>
20001986:	e7db      	b.n	20001940 <clock_configure_internal+0x6c>
20001988:	200073fc 	.word	0x200073fc

2000198c <clock_configure_undivided>:
2000198c:	b510      	push	{r4, lr}
2000198e:	b082      	sub	sp, #8
20001990:	f44f 3480 	mov.w	r4, #65536	@ 0x10000
20001994:	9400      	str	r4, [sp, #0]
20001996:	f7ff ff9d 	bl	200018d4 <clock_configure_internal>
2000199a:	b002      	add	sp, #8
2000199c:	bd10      	pop	{r4, pc}
	...

200019a0 <clock_get_hz>:
200019a0:	4b01      	ldr	r3, [pc, #4]	@ (200019a8 <clock_get_hz+0x8>)
200019a2:	f853 0020 	ldr.w	r0, [r3, r0, lsl #2]
200019a6:	4770      	bx	lr
200019a8:	200073fc 	.word	0x200073fc

200019ac <set_sys_clock_pll>:
200019ac:	b5f0      	push	{r4, r5, r6, r7, lr}
200019ae:	b083      	sub	sp, #12
200019b0:	4604      	mov	r4, r0
200019b2:	460d      	mov	r5, r1
200019b4:	4616      	mov	r6, r2
200019b6:	4f13      	ldr	r7, [pc, #76]	@ (20001a04 <set_sys_clock_pll+0x58>)
200019b8:	463b      	mov	r3, r7
200019ba:	2201      	movs	r2, #1
200019bc:	4611      	mov	r1, r2
200019be:	2005      	movs	r0, #5
200019c0:	f7ff ffe4 	bl	2000198c <clock_configure_undivided>
200019c4:	9600      	str	r6, [sp, #0]
200019c6:	462b      	mov	r3, r5
200019c8:	4622      	mov	r2, r4
200019ca:	2101      	movs	r1, #1
200019cc:	480e      	ldr	r0, [pc, #56]	@ (20001a08 <set_sys_clock_pll+0x5c>)
200019ce:	f000 f859 	bl	20001a84 <pll_init>
200019d2:	fb06 f505 	mul.w	r5, r6, r5
200019d6:	fbb4 f4f5 	udiv	r4, r4, r5
200019da:	4b0c      	ldr	r3, [pc, #48]	@ (20001a0c <set_sys_clock_pll+0x60>)
200019dc:	2200      	movs	r2, #0
200019de:	2102      	movs	r1, #2
200019e0:	2004      	movs	r0, #4
200019e2:	f7ff ffd3 	bl	2000198c <clock_configure_undivided>
200019e6:	4623      	mov	r3, r4
200019e8:	2200      	movs	r2, #0
200019ea:	2101      	movs	r1, #1
200019ec:	2005      	movs	r0, #5
200019ee:	f7ff ffcd 	bl	2000198c <clock_configure_undivided>
200019f2:	463b      	mov	r3, r7
200019f4:	2202      	movs	r2, #2
200019f6:	2100      	movs	r1, #0
200019f8:	2006      	movs	r0, #6
200019fa:	f7ff ffc7 	bl	2000198c <clock_configure_undivided>
200019fe:	b003      	add	sp, #12
20001a00:	bdf0      	pop	{r4, r5, r6, r7, pc}
20001a02:	bf00      	nop
20001a04:	02dc6c00 	.word	0x02dc6c00
20001a08:	40050000 	.word	0x40050000
20001a0c:	00b71b00 	.word	0x00b71b00

20001a10 <check_sys_clock_khz>:
20001a10:	e92d 41f0 	stmdb	sp!, {r4, r5, r6, r7, r8, lr}
20001a14:	4604      	mov	r4, r0
20001a16:	460e      	mov	r6, r1
20001a18:	4617      	mov	r7, r2
20001a1a:	4698      	mov	r8, r3
20001a1c:	f44f 75a0 	mov.w	r5, #320	@ 0x140
20001a20:	e01a      	b.n	20001a58 <check_sys_clock_khz+0x48>
20001a22:	3b01      	subs	r3, #1
20001a24:	b19b      	cbz	r3, 20001a4e <check_sys_clock_khz+0x3e>
20001a26:	fb03 fc00 	mul.w	ip, r3, r0
20001a2a:	fbb2 fefc 	udiv	lr, r2, ip
20001a2e:	45a6      	cmp	lr, r4
20001a30:	d1f7      	bne.n	20001a22 <check_sys_clock_khz+0x12>
20001a32:	fb0c 211e 	mls	r1, ip, lr, r2
20001a36:	2900      	cmp	r1, #0
20001a38:	d1f3      	bne.n	20001a22 <check_sys_clock_khz+0x12>
20001a3a:	4a10      	ldr	r2, [pc, #64]	@ (20001a7c <check_sys_clock_khz+0x6c>)
20001a3c:	fb02 f505 	mul.w	r5, r2, r5
20001a40:	6035      	str	r5, [r6, #0]
20001a42:	6038      	str	r0, [r7, #0]
20001a44:	f8c8 3000 	str.w	r3, [r8]
20001a48:	2001      	movs	r0, #1
20001a4a:	e8bd 81f0 	ldmia.w	sp!, {r4, r5, r6, r7, r8, pc}
20001a4e:	3801      	subs	r0, #1
20001a50:	b108      	cbz	r0, 20001a56 <check_sys_clock_khz+0x46>
20001a52:	4603      	mov	r3, r0
20001a54:	e7e6      	b.n	20001a24 <check_sys_clock_khz+0x14>
20001a56:	3d01      	subs	r5, #1
20001a58:	2d0f      	cmp	r5, #15
20001a5a:	d90c      	bls.n	20001a76 <check_sys_clock_khz+0x66>
20001a5c:	f642 62e0 	movw	r2, #12000	@ 0x2ee0
20001a60:	fb05 f202 	mul.w	r2, r5, r2
20001a64:	f5a2 2337 	sub.w	r3, r2, #749568	@ 0xb7000
20001a68:	f5a3 73d8 	sub.w	r3, r3, #432	@ 0x1b0
20001a6c:	4904      	ldr	r1, [pc, #16]	@ (20001a80 <check_sys_clock_khz+0x70>)
20001a6e:	428b      	cmp	r3, r1
20001a70:	d8f1      	bhi.n	20001a56 <check_sys_clock_khz+0x46>
20001a72:	2007      	movs	r0, #7
20001a74:	e7ec      	b.n	20001a50 <check_sys_clock_khz+0x40>
20001a76:	2000      	movs	r0, #0
20001a78:	e7e7      	b.n	20001a4a <check_sys_clock_khz+0x3a>
20001a7a:	bf00      	nop
20001a7c:	00b71b00 	.word	0x00b71b00
20001a80:	000cf850 	.word	0x000cf850

20001a84 <pll_init>:
20001a84:	b570      	push	{r4, r5, r6, lr}
20001a86:	9c04      	ldr	r4, [sp, #16]
20001a88:	4d34      	ldr	r5, [pc, #208]	@ (20001b5c <pll_init+0xd8>)
20001a8a:	fbb5 fcf1 	udiv	ip, r5, r1
20001a8e:	4d34      	ldr	r5, [pc, #208]	@ (20001b60 <pll_init+0xdc>)
20001a90:	4415      	add	r5, r2
20001a92:	4e34      	ldr	r6, [pc, #208]	@ (20001b64 <pll_init+0xe0>)
20001a94:	42b5      	cmp	r5, r6
20001a96:	d837      	bhi.n	20001b08 <pll_init+0x84>
20001a98:	fbb2 f5fc 	udiv	r5, r2, ip
20001a9c:	f1a5 0e10 	sub.w	lr, r5, #16
20001aa0:	f5be 7f98 	cmp.w	lr, #304	@ 0x130
20001aa4:	d836      	bhi.n	20001b14 <pll_init+0x90>
20001aa6:	f103 3eff 	add.w	lr, r3, #4294967295
20001aaa:	f1be 0f06 	cmp.w	lr, #6
20001aae:	d837      	bhi.n	20001b20 <pll_init+0x9c>
20001ab0:	f104 3eff 	add.w	lr, r4, #4294967295
20001ab4:	f1be 0f06 	cmp.w	lr, #6
20001ab8:	d832      	bhi.n	20001b20 <pll_init+0x9c>
20001aba:	ebbc 1f12 	cmp.w	ip, r2, lsr #4
20001abe:	d835      	bhi.n	20001b2c <pll_init+0xa8>
20001ac0:	0324      	lsls	r4, r4, #12
20001ac2:	ea44 4403 	orr.w	r4, r4, r3, lsl #16
20001ac6:	6803      	ldr	r3, [r0, #0]
20001ac8:	2b00      	cmp	r3, #0
20001aca:	db35      	blt.n	20001b38 <pll_init+0xb4>
20001acc:	4b26      	ldr	r3, [pc, #152]	@ (20001b68 <pll_init+0xe4>)
20001ace:	4298      	cmp	r0, r3
20001ad0:	d042      	beq.n	20001b58 <pll_init+0xd4>
20001ad2:	230e      	movs	r3, #14
20001ad4:	2201      	movs	r2, #1
20001ad6:	409a      	lsls	r2, r3
20001ad8:	4b24      	ldr	r3, [pc, #144]	@ (20001b6c <pll_init+0xe8>)
20001ada:	601a      	str	r2, [r3, #0]
20001adc:	f503 5380 	add.w	r3, r3, #4096	@ 0x1000
20001ae0:	601a      	str	r2, [r3, #0]
20001ae2:	4b23      	ldr	r3, [pc, #140]	@ (20001b70 <pll_init+0xec>)
20001ae4:	689b      	ldr	r3, [r3, #8]
20001ae6:	ea32 0303 	bics.w	r3, r2, r3
20001aea:	d1fa      	bne.n	20001ae2 <pll_init+0x5e>
20001aec:	6001      	str	r1, [r0, #0]
20001aee:	6085      	str	r5, [r0, #8]
20001af0:	f500 5240 	add.w	r2, r0, #12288	@ 0x3000
20001af4:	3204      	adds	r2, #4
20001af6:	2321      	movs	r3, #33	@ 0x21
20001af8:	6013      	str	r3, [r2, #0]
20001afa:	6803      	ldr	r3, [r0, #0]
20001afc:	2b00      	cmp	r3, #0
20001afe:	dafc      	bge.n	20001afa <pll_init+0x76>
20001b00:	60c4      	str	r4, [r0, #12]
20001b02:	2308      	movs	r3, #8
20001b04:	6013      	str	r3, [r2, #0]
20001b06:	bd70      	pop	{r4, r5, r6, pc}
20001b08:	4b1a      	ldr	r3, [pc, #104]	@ (20001b74 <pll_init+0xf0>)
20001b0a:	4a1b      	ldr	r2, [pc, #108]	@ (20001b78 <pll_init+0xf4>)
20001b0c:	2111      	movs	r1, #17
20001b0e:	481b      	ldr	r0, [pc, #108]	@ (20001b7c <pll_init+0xf8>)
20001b10:	f001 fc3a 	bl	20003388 <__assert_func>
20001b14:	4b1a      	ldr	r3, [pc, #104]	@ (20001b80 <pll_init+0xfc>)
20001b16:	4a18      	ldr	r2, [pc, #96]	@ (20001b78 <pll_init+0xf4>)
20001b18:	2119      	movs	r1, #25
20001b1a:	4818      	ldr	r0, [pc, #96]	@ (20001b7c <pll_init+0xf8>)
20001b1c:	f001 fc34 	bl	20003388 <__assert_func>
20001b20:	4b18      	ldr	r3, [pc, #96]	@ (20001b84 <pll_init+0x100>)
20001b22:	4a15      	ldr	r2, [pc, #84]	@ (20001b78 <pll_init+0xf4>)
20001b24:	211c      	movs	r1, #28
20001b26:	4815      	ldr	r0, [pc, #84]	@ (20001b7c <pll_init+0xf8>)
20001b28:	f001 fc2e 	bl	20003388 <__assert_func>
20001b2c:	4b16      	ldr	r3, [pc, #88]	@ (20001b88 <pll_init+0x104>)
20001b2e:	4a12      	ldr	r2, [pc, #72]	@ (20001b78 <pll_init+0xf4>)
20001b30:	2123      	movs	r1, #35	@ 0x23
20001b32:	4812      	ldr	r0, [pc, #72]	@ (20001b7c <pll_init+0xf8>)
20001b34:	f001 fc28 	bl	20003388 <__assert_func>
20001b38:	6803      	ldr	r3, [r0, #0]
20001b3a:	f003 033f 	and.w	r3, r3, #63	@ 0x3f
20001b3e:	428b      	cmp	r3, r1
20001b40:	d1c4      	bne.n	20001acc <pll_init+0x48>
20001b42:	6883      	ldr	r3, [r0, #8]
20001b44:	f3c3 030b 	ubfx	r3, r3, #0, #12
20001b48:	42ab      	cmp	r3, r5
20001b4a:	d1bf      	bne.n	20001acc <pll_init+0x48>
20001b4c:	68c3      	ldr	r3, [r0, #12]
20001b4e:	f403 23ee 	and.w	r3, r3, #487424	@ 0x77000
20001b52:	42a3      	cmp	r3, r4
20001b54:	d1ba      	bne.n	20001acc <pll_init+0x48>
20001b56:	e7d6      	b.n	20001b06 <pll_init+0x82>
20001b58:	230f      	movs	r3, #15
20001b5a:	e7bb      	b.n	20001ad4 <pll_init+0x50>
20001b5c:	00b71b00 	.word	0x00b71b00
20001b60:	d34be880 	.word	0xd34be880
20001b64:	32a9f880 	.word	0x32a9f880
20001b68:	40058000 	.word	0x40058000
20001b6c:	40022000 	.word	0x40022000
20001b70:	40020000 	.word	0x40020000
20001b74:	20005348 	.word	0x20005348
20001b78:	200058fc 	.word	0x200058fc
20001b7c:	20005398 	.word	0x20005398
20001b80:	200053e0 	.word	0x200053e0
20001b84:	200053fc 	.word	0x200053fc
20001b88:	20005448 	.word	0x20005448

20001b8c <watchdog_update>:
20001b8c:	4b02      	ldr	r3, [pc, #8]	@ (20001b98 <watchdog_update+0xc>)
20001b8e:	681a      	ldr	r2, [r3, #0]
20001b90:	4b02      	ldr	r3, [pc, #8]	@ (20001b9c <watchdog_update+0x10>)
20001b92:	605a      	str	r2, [r3, #4]
20001b94:	4770      	bx	lr
20001b96:	bf00      	nop
20001b98:	2006ced8 	.word	0x2006ced8
20001b9c:	400d8000 	.word	0x400d8000

20001ba0 <_watchdog_enable>:
20001ba0:	b508      	push	{r3, lr}
20001ba2:	4b16      	ldr	r3, [pc, #88]	@ (20001bfc <_watchdog_enable+0x5c>)
20001ba4:	f04f 4280 	mov.w	r2, #1073741824	@ 0x40000000
20001ba8:	601a      	str	r2, [r3, #0]
20001baa:	f5a3 2341 	sub.w	r3, r3, #790528	@ 0xc1000
20001bae:	4a14      	ldr	r2, [pc, #80]	@ (20001c00 <_watchdog_enable+0x60>)
20001bb0:	609a      	str	r2, [r3, #8]
20001bb2:	b151      	cbz	r1, 20001bca <_watchdog_enable+0x2a>
20001bb4:	f503 2340 	add.w	r3, r3, #786432	@ 0xc0000
20001bb8:	f04f 62e0 	mov.w	r2, #117440512	@ 0x7000000
20001bbc:	601a      	str	r2, [r3, #0]
20001bbe:	b948      	cbnz	r0, 20001bd4 <_watchdog_enable+0x34>
20001bc0:	4b10      	ldr	r3, [pc, #64]	@ (20001c04 <_watchdog_enable+0x64>)
20001bc2:	f04f 4200 	mov.w	r2, #2147483648	@ 0x80000000
20001bc6:	601a      	str	r2, [r3, #0]
20001bc8:	bd08      	pop	{r3, pc}
20001bca:	4b0c      	ldr	r3, [pc, #48]	@ (20001bfc <_watchdog_enable+0x5c>)
20001bcc:	f04f 62e0 	mov.w	r2, #117440512	@ 0x7000000
20001bd0:	601a      	str	r2, [r3, #0]
20001bd2:	e7f4      	b.n	20001bbe <_watchdog_enable+0x1e>
20001bd4:	f44f 737a 	mov.w	r3, #1000	@ 0x3e8
20001bd8:	fb03 f000 	mul.w	r0, r3, r0
20001bdc:	4b0a      	ldr	r3, [pc, #40]	@ (20001c08 <_watchdog_enable+0x68>)
20001bde:	6018      	str	r0, [r3, #0]
20001be0:	f1b0 7f80 	cmp.w	r0, #16777216	@ 0x1000000
20001be4:	d302      	bcc.n	20001bec <_watchdog_enable+0x4c>
20001be6:	f06f 427f 	mvn.w	r2, #4278190080	@ 0xff000000
20001bea:	601a      	str	r2, [r3, #0]
20001bec:	f7ff ffce 	bl	20001b8c <watchdog_update>
20001bf0:	4b04      	ldr	r3, [pc, #16]	@ (20001c04 <_watchdog_enable+0x64>)
20001bf2:	f04f 4280 	mov.w	r2, #1073741824	@ 0x40000000
20001bf6:	601a      	str	r2, [r3, #0]
20001bf8:	e7e6      	b.n	20001bc8 <_watchdog_enable+0x28>
20001bfa:	bf00      	nop
20001bfc:	400db000 	.word	0x400db000
20001c00:	01fffff3 	.word	0x01fffff3
20001c04:	400da000 	.word	0x400da000
20001c08:	2006ced8 	.word	0x2006ced8

20001c0c <watchdog_enable>:
20001c0c:	b508      	push	{r3, lr}
20001c0e:	4b03      	ldr	r3, [pc, #12]	@ (20001c1c <watchdog_enable+0x10>)
20001c10:	4a03      	ldr	r2, [pc, #12]	@ (20001c20 <watchdog_enable+0x14>)
20001c12:	61da      	str	r2, [r3, #28]
20001c14:	f7ff ffc4 	bl	20001ba0 <_watchdog_enable>
20001c18:	bd08      	pop	{r3, pc}
20001c1a:	bf00      	nop
20001c1c:	400d8000 	.word	0x400d8000
20001c20:	6ab73121 	.word	0x6ab73121

20001c24 <tick_start>:
20001c24:	4a05      	ldr	r2, [pc, #20]	@ (20001c3c <tick_start+0x18>)
20001c26:	eb00 0340 	add.w	r3, r0, r0, lsl #1
20001c2a:	eb02 0383 	add.w	r3, r2, r3, lsl #2
20001c2e:	6059      	str	r1, [r3, #4]
20001c30:	eb00 0040 	add.w	r0, r0, r0, lsl #1
20001c34:	0080      	lsls	r0, r0, #2
20001c36:	2301      	movs	r3, #1
20001c38:	5013      	str	r3, [r2, r0]
20001c3a:	4770      	bx	lr
20001c3c:	40108000 	.word	0x40108000

20001c40 <rom_func_lookup>:
20001c40:	b508      	push	{r3, lr}
20001c42:	2300      	movs	r3, #0
20001c44:	8adb      	ldrh	r3, [r3, #22]
20001c46:	2200      	movs	r2, #0
20001c48:	e842 f200 	tt	r2, r2
20001c4c:	f412 0f80 	tst.w	r2, #4194304	@ 0x400000
20001c50:	d102      	bne.n	20001c58 <rom_func_lookup+0x18>
20001c52:	2110      	movs	r1, #16
20001c54:	4798      	blx	r3
20001c56:	bd08      	pop	{r3, pc}
20001c58:	2104      	movs	r1, #4
20001c5a:	4798      	blx	r3
20001c5c:	e7fb      	b.n	20001c56 <rom_func_lookup+0x16>
	...

20001c60 <runtime_init_bootrom_locking_enable>:
20001c60:	4b03      	ldr	r3, [pc, #12]	@ (20001c70 <runtime_init_bootrom_locking_enable+0x10>)
20001c62:	f8d3 3828 	ldr.w	r3, [r3, #2088]	@ 0x828
20001c66:	2b00      	cmp	r3, #0
20001c68:	d0fa      	beq.n	20001c60 <runtime_init_bootrom_locking_enable>
20001c6a:	f3bf 8f5f 	dmb	sy
20001c6e:	4770      	bx	lr
20001c70:	400e0000 	.word	0x400e0000

20001c74 <boot_locks_reset>:
20001c74:	2200      	movs	r2, #0
20001c76:	e007      	b.n	20001c88 <boot_locks_reset+0x14>
20001c78:	4b05      	ldr	r3, [pc, #20]	@ (20001c90 <boot_locks_reset+0x1c>)
20001c7a:	4413      	add	r3, r2
20001c7c:	009b      	lsls	r3, r3, #2
20001c7e:	f3bf 8f5f 	dmb	sy
20001c82:	2100      	movs	r1, #0
20001c84:	6019      	str	r1, [r3, #0]
20001c86:	3201      	adds	r2, #1
20001c88:	2a07      	cmp	r2, #7
20001c8a:	d9f5      	bls.n	20001c78 <boot_locks_reset+0x4>
20001c8c:	4770      	bx	lr
20001c8e:	bf00      	nop
20001c90:	10038203 	.word	0x10038203

20001c94 <runtime_init_boot_locks_reset>:
20001c94:	b508      	push	{r3, lr}
20001c96:	f7ff ffed 	bl	20001c74 <boot_locks_reset>
20001c9a:	bd08      	pop	{r3, pc}

20001c9c <xosc_init>:
20001c9c:	4b07      	ldr	r3, [pc, #28]	@ (20001cbc <xosc_init+0x20>)
20001c9e:	f44f 622a 	mov.w	r2, #2720	@ 0xaa0
20001ca2:	601a      	str	r2, [r3, #0]
20001ca4:	f44f 52bc 	mov.w	r2, #6016	@ 0x1780
20001ca8:	60da      	str	r2, [r3, #12]
20001caa:	f503 5300 	add.w	r3, r3, #8192	@ 0x2000
20001cae:	4a04      	ldr	r2, [pc, #16]	@ (20001cc0 <xosc_init+0x24>)
20001cb0:	601a      	str	r2, [r3, #0]
20001cb2:	4b02      	ldr	r3, [pc, #8]	@ (20001cbc <xosc_init+0x20>)
20001cb4:	685b      	ldr	r3, [r3, #4]
20001cb6:	2b00      	cmp	r3, #0
20001cb8:	dafb      	bge.n	20001cb2 <xosc_init+0x16>
20001cba:	4770      	bx	lr
20001cbc:	40048000 	.word	0x40048000
20001cc0:	00fab000 	.word	0x00fab000

20001cc4 <runtime_run_initializers_from>:
20001cc4:	b510      	push	{r4, lr}
20001cc6:	4604      	mov	r4, r0
20001cc8:	e002      	b.n	20001cd0 <runtime_run_initializers_from+0xc>
20001cca:	f854 3b04 	ldr.w	r3, [r4], #4
20001cce:	4798      	blx	r3
20001cd0:	4b01      	ldr	r3, [pc, #4]	@ (20001cd8 <runtime_run_initializers_from+0x14>)
20001cd2:	429c      	cmp	r4, r3
20001cd4:	d3f9      	bcc.n	20001cca <runtime_run_initializers_from+0x6>
20001cd6:	bd10      	pop	{r4, pc}
20001cd8:	20005ab8 	.word	0x20005ab8

20001cdc <first_per_core_initializer>:
20001cdc:	4770      	bx	lr
	...

20001ce0 <runtime_run_initializers>:
20001ce0:	b508      	push	{r3, lr}
20001ce2:	4802      	ldr	r0, [pc, #8]	@ (20001cec <runtime_run_initializers+0xc>)
20001ce4:	f7ff ffee 	bl	20001cc4 <runtime_run_initializers_from>
20001ce8:	bd08      	pop	{r3, pc}
20001cea:	bf00      	nop
20001cec:	20005a78 	.word	0x20005a78

20001cf0 <runtime_run_per_core_initializers>:
20001cf0:	b508      	push	{r3, lr}
20001cf2:	4802      	ldr	r0, [pc, #8]	@ (20001cfc <runtime_run_per_core_initializers+0xc>)
20001cf4:	f7ff ffe6 	bl	20001cc4 <runtime_run_initializers_from>
20001cf8:	bd08      	pop	{r3, pc}
20001cfa:	bf00      	nop
20001cfc:	20005aa4 	.word	0x20005aa4

20001d00 <runtime_init_early_resets>:
20001d00:	4b06      	ldr	r3, [pc, #24]	@ (20001d1c <runtime_init_early_resets+0x1c>)
20001d02:	4a07      	ldr	r2, [pc, #28]	@ (20001d20 <runtime_init_early_resets+0x20>)
20001d04:	601a      	str	r2, [r3, #0]
20001d06:	f503 5380 	add.w	r3, r3, #4096	@ 0x1000
20001d0a:	4a06      	ldr	r2, [pc, #24]	@ (20001d24 <runtime_init_early_resets+0x24>)
20001d0c:	601a      	str	r2, [r3, #0]
20001d0e:	4b06      	ldr	r3, [pc, #24]	@ (20001d28 <runtime_init_early_resets+0x28>)
20001d10:	689a      	ldr	r2, [r3, #8]
20001d12:	4b04      	ldr	r3, [pc, #16]	@ (20001d24 <runtime_init_early_resets+0x24>)
20001d14:	4393      	bics	r3, r2
20001d16:	d1fa      	bne.n	20001d0e <runtime_init_early_resets+0xe>
20001d18:	4770      	bx	lr
20001d1a:	bf00      	nop
20001d1c:	40022000 	.word	0x40022000
20001d20:	efef3b7f 	.word	0xefef3b7f
20001d24:	03f3fff6 	.word	0x03f3fff6
20001d28:	40020000 	.word	0x40020000

20001d2c <runtime_init_usb_power_down>:
20001d2c:	4b05      	ldr	r3, [pc, #20]	@ (20001d44 <runtime_init_usb_power_down+0x18>)
20001d2e:	6cdb      	ldr	r3, [r3, #76]	@ 0x4c
20001d30:	f5b3 4f00 	cmp.w	r3, #32768	@ 0x8000
20001d34:	d000      	beq.n	20001d38 <runtime_init_usb_power_down+0xc>
20001d36:	4770      	bx	lr
20001d38:	4b03      	ldr	r3, [pc, #12]	@ (20001d48 <runtime_init_usb_power_down+0x1c>)
20001d3a:	f44f 2280 	mov.w	r2, #262144	@ 0x40000
20001d3e:	64da      	str	r2, [r3, #76]	@ 0x4c
20001d40:	e7f9      	b.n	20001d36 <runtime_init_usb_power_down+0xa>
20001d42:	bf00      	nop
20001d44:	50110000 	.word	0x50110000
20001d48:	50112000 	.word	0x50112000

20001d4c <runtime_init_per_core_enable_coprocessors>:
20001d4c:	f04f 22e0 	mov.w	r2, #3758153728	@ 0xe000e000
20001d50:	f8d2 1d88 	ldr.w	r1, [r2, #3464]	@ 0xd88
20001d54:	4b03      	ldr	r3, [pc, #12]	@ (20001d64 <runtime_init_per_core_enable_coprocessors+0x18>)
20001d56:	430b      	orrs	r3, r1
20001d58:	f8c2 3d88 	str.w	r3, [r2, #3464]	@ 0xd88
20001d5c:	ee10 0430 			dcp_rcmp r0
20001d60:	4770      	bx	lr
20001d62:	bf00      	nop
20001d64:	00300303 	.word	0x00300303

20001d68 <runtime_init_post_clock_resets>:
20001d68:	4b05      	ldr	r3, [pc, #20]	@ (20001d80 <runtime_init_post_clock_resets+0x18>)
20001d6a:	f06f 4260 	mvn.w	r2, #3758096384	@ 0xe0000000
20001d6e:	601a      	str	r2, [r3, #0]
20001d70:	4b04      	ldr	r3, [pc, #16]	@ (20001d84 <runtime_init_post_clock_resets+0x1c>)
20001d72:	689b      	ldr	r3, [r3, #8]
20001d74:	43db      	mvns	r3, r3
20001d76:	f033 4360 	bics.w	r3, r3, #3758096384	@ 0xe0000000
20001d7a:	d1f9      	bne.n	20001d70 <runtime_init_post_clock_resets+0x8>
20001d7c:	4770      	bx	lr
20001d7e:	bf00      	nop
20001d80:	40023000 	.word	0x40023000
20001d84:	40020000 	.word	0x40020000

20001d88 <runtime_init_bootrom_reset>:
20001d88:	b508      	push	{r3, lr}
20001d8a:	f245 2053 	movw	r0, #21075	@ 0x5253
20001d8e:	f7ff ff57 	bl	20001c40 <rom_func_lookup>
20001d92:	4603      	mov	r3, r0
20001d94:	2004      	movs	r0, #4
20001d96:	4798      	blx	r3
20001d98:	bd08      	pop	{r3, pc}

20001d9a <runtime_init_per_core_bootrom_reset>:
20001d9a:	b508      	push	{r3, lr}
20001d9c:	f245 2053 	movw	r0, #21075	@ 0x5253
20001da0:	f7ff ff4e 	bl	20001c40 <rom_func_lookup>
20001da4:	4603      	mov	r3, r0
20001da6:	2001      	movs	r0, #1
20001da8:	4798      	blx	r3
20001daa:	bd08      	pop	{r3, pc}

20001dac <runtime_init_spin_locks_reset>:
20001dac:	b508      	push	{r3, lr}
20001dae:	f7ff f8fb 	bl	20000fa8 <spin_locks_reset>
20001db2:	bd08      	pop	{r3, pc}

20001db4 <runtime_init_install_ram_vector_table>:
20001db4:	b538      	push	{r3, r4, r5, lr}
20001db6:	4c05      	ldr	r4, [pc, #20]	@ (20001dcc <runtime_init_install_ram_vector_table+0x18>)
20001db8:	68a1      	ldr	r1, [r4, #8]
20001dba:	4d05      	ldr	r5, [pc, #20]	@ (20001dd0 <runtime_init_install_ram_vector_table+0x1c>)
20001dbc:	f44f 7288 	mov.w	r2, #272	@ 0x110
20001dc0:	4628      	mov	r0, r5
20001dc2:	f002 f8db 	bl	20003f7c <memcpy>
20001dc6:	60a5      	str	r5, [r4, #8]
20001dc8:	bd38      	pop	{r3, r4, r5, pc}
20001dca:	bf00      	nop
20001dcc:	e000ed00 	.word	0xe000ed00
20001dd0:	20000000 	.word	0x20000000

20001dd4 <start_all_ticks>:
20001dd4:	b538      	push	{r3, r4, r5, lr}
20001dd6:	2004      	movs	r0, #4
20001dd8:	f7ff fde2 	bl	200019a0 <clock_get_hz>
20001ddc:	4b06      	ldr	r3, [pc, #24]	@ (20001df8 <start_all_ticks+0x24>)
20001dde:	fba3 3500 	umull	r3, r5, r3, r0
20001de2:	0cad      	lsrs	r5, r5, #18
20001de4:	2400      	movs	r4, #0
20001de6:	e004      	b.n	20001df2 <start_all_ticks+0x1e>
20001de8:	4629      	mov	r1, r5
20001dea:	b2e0      	uxtb	r0, r4
20001dec:	f7ff ff1a 	bl	20001c24 <tick_start>
20001df0:	3401      	adds	r4, #1
20001df2:	2c05      	cmp	r4, #5
20001df4:	ddf8      	ble.n	20001de8 <start_all_ticks+0x14>
20001df6:	bd38      	pop	{r3, r4, r5, pc}
20001df8:	431bde83 	.word	0x431bde83

20001dfc <runtime_init_clocks>:
20001dfc:	b530      	push	{r4, r5, lr}
20001dfe:	b083      	sub	sp, #12
20001e00:	4b26      	ldr	r3, [pc, #152]	@ (20001e9c <runtime_init_clocks+0xa0>)
20001e02:	2200      	movs	r2, #0
20001e04:	f8c3 2084 	str.w	r2, [r3, #132]	@ 0x84
20001e08:	f7ff ff48 	bl	20001c9c <xosc_init>
20001e0c:	4b24      	ldr	r3, [pc, #144]	@ (20001ea0 <runtime_init_clocks+0xa4>)
20001e0e:	2201      	movs	r2, #1
20001e10:	63da      	str	r2, [r3, #60]	@ 0x3c
20001e12:	4b22      	ldr	r3, [pc, #136]	@ (20001e9c <runtime_init_clocks+0xa0>)
20001e14:	6c5b      	ldr	r3, [r3, #68]	@ 0x44
20001e16:	2b01      	cmp	r3, #1
20001e18:	d1fb      	bne.n	20001e12 <runtime_init_clocks+0x16>
20001e1a:	4b21      	ldr	r3, [pc, #132]	@ (20001ea0 <runtime_init_clocks+0xa4>)
20001e1c:	2203      	movs	r2, #3
20001e1e:	631a      	str	r2, [r3, #48]	@ 0x30
20001e20:	4b1e      	ldr	r3, [pc, #120]	@ (20001e9c <runtime_init_clocks+0xa0>)
20001e22:	6b9b      	ldr	r3, [r3, #56]	@ 0x38
20001e24:	2b01      	cmp	r3, #1
20001e26:	d1fb      	bne.n	20001e20 <runtime_init_clocks+0x24>
20001e28:	2402      	movs	r4, #2
20001e2a:	9400      	str	r4, [sp, #0]
20001e2c:	2305      	movs	r3, #5
20001e2e:	4a1d      	ldr	r2, [pc, #116]	@ (20001ea4 <runtime_init_clocks+0xa8>)
20001e30:	2101      	movs	r1, #1
20001e32:	481d      	ldr	r0, [pc, #116]	@ (20001ea8 <runtime_init_clocks+0xac>)
20001e34:	f7ff fe26 	bl	20001a84 <pll_init>
20001e38:	2505      	movs	r5, #5
20001e3a:	9500      	str	r5, [sp, #0]
20001e3c:	462b      	mov	r3, r5
20001e3e:	4a1b      	ldr	r2, [pc, #108]	@ (20001eac <runtime_init_clocks+0xb0>)
20001e40:	2101      	movs	r1, #1
20001e42:	481b      	ldr	r0, [pc, #108]	@ (20001eb0 <runtime_init_clocks+0xb4>)
20001e44:	f7ff fe1e 	bl	20001a84 <pll_init>
20001e48:	4b1a      	ldr	r3, [pc, #104]	@ (20001eb4 <runtime_init_clocks+0xb8>)
20001e4a:	2200      	movs	r2, #0
20001e4c:	4621      	mov	r1, r4
20001e4e:	2004      	movs	r0, #4
20001e50:	f7ff fd9c 	bl	2000198c <clock_configure_undivided>
20001e54:	4c18      	ldr	r4, [pc, #96]	@ (20001eb8 <runtime_init_clocks+0xbc>)
20001e56:	4623      	mov	r3, r4
20001e58:	2200      	movs	r2, #0
20001e5a:	2101      	movs	r1, #1
20001e5c:	4628      	mov	r0, r5
20001e5e:	f7ff fd95 	bl	2000198c <clock_configure_undivided>
20001e62:	4d16      	ldr	r5, [pc, #88]	@ (20001ebc <runtime_init_clocks+0xc0>)
20001e64:	462b      	mov	r3, r5
20001e66:	2200      	movs	r2, #0
20001e68:	4611      	mov	r1, r2
20001e6a:	2008      	movs	r0, #8
20001e6c:	f7ff fd8e 	bl	2000198c <clock_configure_undivided>
20001e70:	462b      	mov	r3, r5
20001e72:	2200      	movs	r2, #0
20001e74:	4611      	mov	r1, r2
20001e76:	2009      	movs	r0, #9
20001e78:	f7ff fd88 	bl	2000198c <clock_configure_undivided>
20001e7c:	4623      	mov	r3, r4
20001e7e:	2200      	movs	r2, #0
20001e80:	4611      	mov	r1, r2
20001e82:	2006      	movs	r0, #6
20001e84:	f7ff fd82 	bl	2000198c <clock_configure_undivided>
20001e88:	4623      	mov	r3, r4
20001e8a:	2200      	movs	r2, #0
20001e8c:	4611      	mov	r1, r2
20001e8e:	2007      	movs	r0, #7
20001e90:	f7ff fd7c 	bl	2000198c <clock_configure_undivided>
20001e94:	f7ff ff9e 	bl	20001dd4 <start_all_ticks>
20001e98:	b003      	add	sp, #12
20001e9a:	bd30      	pop	{r4, r5, pc}
20001e9c:	40010000 	.word	0x40010000
20001ea0:	40013000 	.word	0x40013000
20001ea4:	59682f00 	.word	0x59682f00
20001ea8:	40050000 	.word	0x40050000
20001eac:	47868c00 	.word	0x47868c00
20001eb0:	40058000 	.word	0x40058000
20001eb4:	00b71b00 	.word	0x00b71b00
20001eb8:	08f0d180 	.word	0x08f0d180
20001ebc:	02dc6c00 	.word	0x02dc6c00

20001ec0 <generic_save_state>:
20001ec0:	b086      	sub	sp, #24
20001ec2:	b403      	push	{r0, r1}
20001ec4:	fc51 0408 	dcp_pxmd r0, r1
20001ec8:	e9cd 0102 	strd	r0, r1, [sp, #8]
20001ecc:	fc51 0409 	dcp_pymd r0, r1
20001ed0:	e9cd 0104 	strd	r0, r1, [sp, #16]
20001ed4:	ec51 040a 	dcp_refd r0, r1
20001ed8:	e9cd 0106 	strd	r0, r1, [sp, #24]
20001edc:	bc03      	pop	{r0, r1}
20001ede:	47f0      	blx	lr

20001ee0 <generic_restore_state>:
20001ee0:	e8bd 5000 	ldmia.w	sp!, {ip, lr}
20001ee4:	ec4e c400 	dcp_wxmd ip, lr
20001ee8:	e8bd 5000 	ldmia.w	sp!, {ip, lr}
20001eec:	ec4e c401 	dcp_wymd ip, lr
20001ef0:	e8bd 5000 	ldmia.w	sp!, {ip, lr}
20001ef4:	ec4e c402 	dcp_wefd ip, lr
20001ef8:	bd00      	pop	{pc}
20001efa:	0000      	movs	r0, r0
20001efc:	b500      	push	{lr}
20001efe:	f7ff ffdf 	bl	20001ec0 <generic_save_state>
20001f02:	e002      	b.n	20001f0a <__wrap___aeabi_dadd+0x6>

20001f04 <__wrap___aeabi_dadd>:
20001f04:	fe10 f430 	dcp_pcmp APSR_nzcv
20001f08:	d4f8      	bmi.n	20001efc <generic_restore_state+0x1c>
20001f0a:	ec41 0410 	dcp_wxup r0, r1
20001f0e:	ec43 2411 	dcp_wyup r2, r3
20001f12:	ee00 0401 			dcp_add0
20001f16:	ee10 0401 			dcp_add1
20001f1a:	ee80 0420 			dcp_nrdd
20001f1e:	ec51 0410 	dcp_rdda r0, r1
20001f22:	4770      	bx	lr
20001f24:	b500      	push	{lr}
20001f26:	f7ff ffcb 	bl	20001ec0 <generic_save_state>
20001f2a:	e002      	b.n	20001f32 <__wrap___aeabi_dsub+0x6>

20001f2c <__wrap___aeabi_dsub>:
20001f2c:	fe10 f430 	dcp_pcmp APSR_nzcv
20001f30:	d4f8      	bmi.n	20001f24 <__wrap___aeabi_dadd+0x20>
20001f32:	ec41 0410 	dcp_wxup r0, r1
20001f36:	ec43 2411 	dcp_wyup r2, r3
20001f3a:	ee00 0401 			dcp_add0
20001f3e:	ee10 0421 			dcp_sub1
20001f42:	ee80 0420 			dcp_nrdd
20001f46:	ec51 0430 	dcp_rdds r0, r1
20001f4a:	4770      	bx	lr
20001f4c:	b500      	push	{lr}
20001f4e:	f7ff ffb7 	bl	20001ec0 <generic_save_state>
20001f52:	e002      	b.n	20001f5a <__wrap___aeabi_dmul+0x6>

20001f54 <__wrap___aeabi_dmul>:
20001f54:	fe10 f430 	dcp_pcmp APSR_nzcv
20001f58:	d4f8      	bmi.n	20001f4c <__wrap___aeabi_dsub+0x20>
20001f5a:	b510      	push	{r4, lr}
20001f5c:	ec41 0410 	dcp_wxup r0, r1
20001f60:	ec43 2411 	dcp_wyup r2, r3
20001f64:	ec51 0404 	dcp_rxms r0, r1, #0x0
20001f68:	ec53 2405 	dcp_ryms r2, r3, #0x0
20001f6c:	fba0 4c02 	umull	r4, ip, r0, r2
20001f70:	f05f 0e00 	movs.w	lr, #0
20001f74:	fbe0 ce03 	umlal	ip, lr, r0, r3
20001f78:	fbe1 ce02 	umlal	ip, lr, r1, r2
20001f7c:	ec4c 4420 	dcp_wxms r4, ip
20001f80:	2400      	movs	r4, #0
20001f82:	fbe1 e403 	umlal	lr, r4, r1, r3
20001f86:	ec44 e430 	dcp_wxmo lr, r4
20001f8a:	ee80 0420 			dcp_nrdd
20001f8e:	ec51 0450 	dcp_rddm r0, r1
20001f92:	e8bd 4010 	ldmia.w	sp!, {r4, lr}
20001f96:	4770      	bx	lr
20001f98:	b500      	push	{lr}
20001f9a:	f7ff ff91 	bl	20001ec0 <generic_save_state>
20001f9e:	e002      	b.n	20001fa6 <__wrap___aeabi_ddiv+0x6>

20001fa0 <__wrap___aeabi_ddiv>:
20001fa0:	fe10 f430 	dcp_pcmp APSR_nzcv
20001fa4:	d4f8      	bmi.n	20001f98 <__wrap___aeabi_dmul+0x44>
20001fa6:	ec41 0410 	dcp_wxup r0, r1
20001faa:	ec43 2411 	dcp_wyup r2, r3
20001fae:	ec51 0421 	dcp_rymr r0, r1
20001fb2:	fba0 1201 	umull	r1, r2, r0, r1
20001fb6:	ea6f 0282 	mvn.w	r2, r2, lsl #2
20001fba:	fb52 0010 	smmlar	r0, r2, r0, r0
20001fbe:	fb52 f212 	smmulr	r2, r2, r2
20001fc2:	fb52 0010 	smmlar	r0, r2, r0, r0
20001fc6:	eba0 7cd0 	sub.w	ip, r0, r0, lsr #31
20001fca:	ec53 2404 	dcp_rxms r2, r3, #0x0
20001fce:	fb5c f113 	smmulr	r1, ip, r3
20001fd2:	ec53 2415 	dcp_ryms r2, r3, #0x1
20001fd6:	fba1 2002 	umull	r2, r0, r1, r2
20001fda:	fb01 0003 	mla	r0, r1, r3, r0
20001fde:	ec53 2444 	dcp_rxms r2, r3, #0x4
20001fe2:	eba2 0000 	sub.w	r0, r2, r0
20001fe6:	fb50 f21c 	smmulr	r2, r0, ip
20001fea:	ea4f 1311 	mov.w	r3, r1, lsr #4
20001fee:	eb12 7001 	adds.w	r0, r2, r1, lsl #28
20001ff2:	eb43 71e2 	adc.w	r1, r3, r2, asr #31
20001ff6:	ea40 5051 	orr.w	r0, r0, r1, lsr #21
20001ffa:	ea20 5091 	bic.w	r0, r0, r1, lsr #22
20001ffe:	f020 0007 	bic.w	r0, r0, #7
20002002:	ec53 2475 	dcp_ryms r2, r3, #0x7
20002006:	fba0 3c02 	umull	r3, ip, r0, r2
2000200a:	ec53 2475 	dcp_ryms r2, r3, #0x7
2000200e:	fb00 cc03 	mla	ip, r0, r3, ip
20002012:	fb01 cc02 	mla	ip, r1, r2, ip
20002016:	ec53 2404 	dcp_rxms r2, r3, #0x0
2000201a:	ebac 4c82 	sub.w	ip, ip, r2, lsl #18
2000201e:	ea40 705c 	orr.w	r0, r0, ip, lsr #29
20002022:	f1a0 0001 	sub.w	r0, r0, #1
20002026:	ec41 0440 	dcp_wxdd r0, r1
2000202a:	ee80 0420 			dcp_nrdd
2000202e:	ec51 0470 	dcp_rddd r0, r1
20002032:	4770      	bx	lr
20002034:	b500      	push	{lr}
20002036:	f7ff ff43 	bl	20001ec0 <generic_save_state>
2000203a:	e002      	b.n	20002042 <__wrap___aeabi_i2d+0x6>

2000203c <__wrap___aeabi_i2d>:
2000203c:	fe10 f430 	dcp_pcmp APSR_nzcv
20002040:	d4f8      	bmi.n	20002034 <__wrap___aeabi_ddiv+0x94>
20002042:	ec40 0470 	dcp_wxic r0, r0
20002046:	ee00 0401 			dcp_add0
2000204a:	ee10 0421 			dcp_sub1
2000204e:	ee80 0420 			dcp_nrdd
20002052:	ec51 0430 	dcp_rdds r0, r1
20002056:	4770      	bx	lr
20002058:	b500      	push	{lr}
2000205a:	f7ff ff31 	bl	20001ec0 <generic_save_state>
2000205e:	e002      	b.n	20002066 <__wrap___aeabi_ui2d+0x6>

20002060 <__wrap___aeabi_ui2d>:
20002060:	fe10 f430 	dcp_pcmp APSR_nzcv
20002064:	d4f8      	bmi.n	20002058 <__wrap___aeabi_i2d+0x1c>
20002066:	ec40 0460 	dcp_wxuc r0, r0
2000206a:	ee00 0401 			dcp_add0
2000206e:	ee10 0421 			dcp_sub1
20002072:	ee80 0420 			dcp_nrdd
20002076:	ec51 0430 	dcp_rdds r0, r1
2000207a:	4770      	bx	lr
2000207c:	b500      	push	{lr}
2000207e:	f7ff ff1f 	bl	20001ec0 <generic_save_state>
20002082:	e002      	b.n	2000208a <double2int_z_entry>

20002084 <__wrap___aeabi_d2iz>:
20002084:	fe10 f430 	dcp_pcmp APSR_nzcv
20002088:	d4f8      	bmi.n	2000207c <__wrap___aeabi_ui2d+0x1c>

2000208a <double2int_z_entry>:
2000208a:	ec41 0480 	dcp_wxdc r0, r1
2000208e:	ee00 0401 			dcp_add0
20002092:	ee10 0401 			dcp_add1
20002096:	ee80 0440 			dcp_ntdc
2000209a:	ee10 0413 			dcp_rdic r0
2000209e:	4770      	bx	lr
200020a0:	b500      	push	{lr}
200020a2:	f7ff ff0d 	bl	20001ec0 <generic_save_state>
200020a6:	e002      	b.n	200020ae <double2uint_z_entry>

200020a8 <__wrap___aeabi_d2uiz>:
200020a8:	fe10 f430 	dcp_pcmp APSR_nzcv
200020ac:	d4f8      	bmi.n	200020a0 <double2int_z_entry+0x16>

200020ae <double2uint_z_entry>:
200020ae:	ec41 0480 	dcp_wxdc r0, r1
200020b2:	ee00 0401 			dcp_add0
200020b6:	ee10 0401 			dcp_add1
200020ba:	ee80 0440 			dcp_ntdc
200020be:	ee10 0433 			dcp_rduc r0
200020c2:	4770      	bx	lr
200020c4:	b500      	push	{lr}
200020c6:	f7ff fefb 	bl	20001ec0 <generic_save_state>
200020ca:	e002      	b.n	200020d2 <__wrap___aeabi_dcmpun+0x6>

200020cc <__wrap___aeabi_dcmpun>:
200020cc:	fe10 f430 	dcp_pcmp APSR_nzcv
200020d0:	d4f8      	bmi.n	200020c4 <double2uint_z_entry+0x16>
200020d2:	ec41 0410 	dcp_wxup r0, r1
200020d6:	ec43 2411 	dcp_wyup r2, r3
200020da:	ee00 0401 			dcp_add0
200020de:	ee10 0430 			dcp_rcmp r0
200020e2:	f3c0 7000 	ubfx	r0, r0, #28, #1
200020e6:	4770      	bx	lr
200020e8:	b500      	push	{lr}
200020ea:	f7ff fee9 	bl	20001ec0 <generic_save_state>
200020ee:	e002      	b.n	200020f6 <__wrap___aeabi_dcmplt+0x6>

200020f0 <__wrap___aeabi_dcmplt>:
200020f0:	fe10 f430 	dcp_pcmp APSR_nzcv
200020f4:	d4f8      	bmi.n	200020e8 <__wrap___aeabi_dcmpun+0x1c>
200020f6:	ec43 2410 	dcp_wxup r2, r3
200020fa:	ec41 0411 	dcp_wyup r0, r1
200020fe:	ee00 0401 			dcp_add0
20002102:	ee10 f430 			dcp_rcmp APSR_nzcv
20002106:	bf8c      	ite	hi
20002108:	2001      	movhi	r0, #1
2000210a:	2000      	movls	r0, #0
2000210c:	4770      	bx	lr
2000210e:	bf00      	nop
20002110:	b500      	push	{lr}
20002112:	f7ff fed5 	bl	20001ec0 <generic_save_state>
20002116:	e002      	b.n	2000211e <__wrap___aeabi_dcmple+0x6>

20002118 <__wrap___aeabi_dcmple>:
20002118:	fe10 f430 	dcp_pcmp APSR_nzcv
2000211c:	d4f8      	bmi.n	20002110 <__wrap___aeabi_dcmplt+0x20>
2000211e:	ec43 2410 	dcp_wxup r2, r3
20002122:	ec41 0411 	dcp_wyup r0, r1
20002126:	ee00 0401 			dcp_add0
2000212a:	ee10 f430 			dcp_rcmp APSR_nzcv
2000212e:	bf2c      	ite	cs
20002130:	2001      	movcs	r0, #1
20002132:	2000      	movcc	r0, #0
20002134:	4770      	bx	lr
20002136:	bf00      	nop
20002138:	b500      	push	{lr}
2000213a:	f7ff fec1 	bl	20001ec0 <generic_save_state>
2000213e:	e002      	b.n	20002146 <__wrap___aeabi_dcmpge+0x6>

20002140 <__wrap___aeabi_dcmpge>:
20002140:	fe10 f430 	dcp_pcmp APSR_nzcv
20002144:	d4f8      	bmi.n	20002138 <__wrap___aeabi_dcmple+0x20>
20002146:	ec41 0410 	dcp_wxup r0, r1
2000214a:	ec43 2411 	dcp_wyup r2, r3
2000214e:	ee00 0401 			dcp_add0
20002152:	ee10 f430 			dcp_rcmp APSR_nzcv
20002156:	bf2c      	ite	cs
20002158:	2001      	movcs	r0, #1
2000215a:	2000      	movcc	r0, #0
2000215c:	4770      	bx	lr
2000215e:	bf00      	nop
20002160:	b500      	push	{lr}
20002162:	f7ff fead 	bl	20001ec0 <generic_save_state>
20002166:	e002      	b.n	2000216e <__wrap___aeabi_dcmpgt+0x6>

20002168 <__wrap___aeabi_dcmpgt>:
20002168:	fe10 f430 	dcp_pcmp APSR_nzcv
2000216c:	d4f8      	bmi.n	20002160 <__wrap___aeabi_dcmpge+0x20>
2000216e:	ec41 0410 	dcp_wxup r0, r1
20002172:	ec43 2411 	dcp_wyup r2, r3
20002176:	ee00 0401 			dcp_add0
2000217a:	ee10 f430 			dcp_rcmp APSR_nzcv
2000217e:	bf8c      	ite	hi
20002180:	2001      	movhi	r0, #1
20002182:	2000      	movls	r0, #0
20002184:	4770      	bx	lr
20002186:	bf00      	nop

20002188 <_out_null>:
20002188:	4770      	bx	lr

2000218a <_out_fct>:
2000218a:	b120      	cbz	r0, 20002196 <_out_fct+0xc>
2000218c:	b508      	push	{r3, lr}
2000218e:	680a      	ldr	r2, [r1, #0]
20002190:	6849      	ldr	r1, [r1, #4]
20002192:	4790      	blx	r2
20002194:	bd08      	pop	{r3, pc}
20002196:	4770      	bx	lr

20002198 <_atoi>:
20002198:	4601      	mov	r1, r0
2000219a:	2000      	movs	r0, #0
2000219c:	e008      	b.n	200021b0 <_atoi+0x18>
2000219e:	eb00 0080 	add.w	r0, r0, r0, lsl #2
200021a2:	1c53      	adds	r3, r2, #1
200021a4:	600b      	str	r3, [r1, #0]
200021a6:	7813      	ldrb	r3, [r2, #0]
200021a8:	eb03 0340 	add.w	r3, r3, r0, lsl #1
200021ac:	f1a3 0030 	sub.w	r0, r3, #48	@ 0x30
200021b0:	680a      	ldr	r2, [r1, #0]
200021b2:	7813      	ldrb	r3, [r2, #0]
200021b4:	3b30      	subs	r3, #48	@ 0x30
200021b6:	b2db      	uxtb	r3, r3
200021b8:	2b09      	cmp	r3, #9
200021ba:	d9f0      	bls.n	2000219e <_atoi+0x6>
200021bc:	4770      	bx	lr

200021be <_out_rev>:
200021be:	e92d 4ff0 	stmdb	sp!, {r4, r5, r6, r7, r8, r9, sl, fp, lr}
200021c2:	b083      	sub	sp, #12
200021c4:	4605      	mov	r5, r0
200021c6:	460e      	mov	r6, r1
200021c8:	4693      	mov	fp, r2
200021ca:	461f      	mov	r7, r3
200021cc:	f8dd a030 	ldr.w	sl, [sp, #48]	@ 0x30
200021d0:	9c0d      	ldr	r4, [sp, #52]	@ 0x34
200021d2:	f8dd 9038 	ldr.w	r9, [sp, #56]	@ 0x38
200021d6:	9b0f      	ldr	r3, [sp, #60]	@ 0x3c
200021d8:	f013 0f03 	tst.w	r3, #3
200021dc:	d119      	bne.n	20002212 <_out_rev+0x54>
200021de:	46a0      	mov	r8, r4
200021e0:	9201      	str	r2, [sp, #4]
200021e2:	e008      	b.n	200021f6 <_out_rev+0x38>
200021e4:	f102 0b01 	add.w	fp, r2, #1
200021e8:	463b      	mov	r3, r7
200021ea:	4631      	mov	r1, r6
200021ec:	2020      	movs	r0, #32
200021ee:	47a8      	blx	r5
200021f0:	f108 0801 	add.w	r8, r8, #1
200021f4:	465a      	mov	r2, fp
200021f6:	45c8      	cmp	r8, r9
200021f8:	d3f4      	bcc.n	200021e4 <_out_rev+0x26>
200021fa:	f8dd b004 	ldr.w	fp, [sp, #4]
200021fe:	e008      	b.n	20002212 <_out_rev+0x54>
20002200:	3c01      	subs	r4, #1
20002202:	f102 0801 	add.w	r8, r2, #1
20002206:	463b      	mov	r3, r7
20002208:	4631      	mov	r1, r6
2000220a:	f81a 0004 	ldrb.w	r0, [sl, r4]
2000220e:	47a8      	blx	r5
20002210:	4642      	mov	r2, r8
20002212:	2c00      	cmp	r4, #0
20002214:	d1f4      	bne.n	20002200 <_out_rev+0x42>
20002216:	9b0f      	ldr	r3, [sp, #60]	@ 0x3c
20002218:	f013 0f02 	tst.w	r3, #2
2000221c:	d109      	bne.n	20002232 <_out_rev+0x74>
2000221e:	4610      	mov	r0, r2
20002220:	b003      	add	sp, #12
20002222:	e8bd 8ff0 	ldmia.w	sp!, {r4, r5, r6, r7, r8, r9, sl, fp, pc}
20002226:	1c54      	adds	r4, r2, #1
20002228:	463b      	mov	r3, r7
2000222a:	4631      	mov	r1, r6
2000222c:	2020      	movs	r0, #32
2000222e:	47a8      	blx	r5
20002230:	4622      	mov	r2, r4
20002232:	eba2 030b 	sub.w	r3, r2, fp
20002236:	454b      	cmp	r3, r9
20002238:	d3f5      	bcc.n	20002226 <_out_rev+0x68>
2000223a:	e7f0      	b.n	2000221e <_out_rev+0x60>

2000223c <_ntoa_format>:
2000223c:	e92d 43f0 	stmdb	sp!, {r4, r5, r6, r7, r8, r9, lr}
20002240:	b085      	sub	sp, #20
20002242:	4699      	mov	r9, r3
20002244:	9d0c      	ldr	r5, [sp, #48]	@ 0x30
20002246:	9c0d      	ldr	r4, [sp, #52]	@ 0x34
20002248:	f89d 8038 	ldrb.w	r8, [sp, #56]	@ 0x38
2000224c:	f8dd e040 	ldr.w	lr, [sp, #64]	@ 0x40
20002250:	9f11      	ldr	r7, [sp, #68]	@ 0x44
20002252:	9e12      	ldr	r6, [sp, #72]	@ 0x48
20002254:	f016 0f02 	tst.w	r6, #2
20002258:	d121      	bne.n	2000229e <_ntoa_format+0x62>
2000225a:	b17f      	cbz	r7, 2000227c <_ntoa_format+0x40>
2000225c:	f016 0f01 	tst.w	r6, #1
20002260:	d00c      	beq.n	2000227c <_ntoa_format+0x40>
20002262:	f1b8 0f00 	cmp.w	r8, #0
20002266:	d102      	bne.n	2000226e <_ntoa_format+0x32>
20002268:	f016 0f0c 	tst.w	r6, #12
2000226c:	d006      	beq.n	2000227c <_ntoa_format+0x40>
2000226e:	3f01      	subs	r7, #1
20002270:	e004      	b.n	2000227c <_ntoa_format+0x40>
20002272:	f04f 0c30 	mov.w	ip, #48	@ 0x30
20002276:	f805 c004 	strb.w	ip, [r5, r4]
2000227a:	3401      	adds	r4, #1
2000227c:	4574      	cmp	r4, lr
2000227e:	d201      	bcs.n	20002284 <_ntoa_format+0x48>
20002280:	2c1f      	cmp	r4, #31
20002282:	d9f6      	bls.n	20002272 <_ntoa_format+0x36>
20002284:	f016 0f01 	tst.w	r6, #1
20002288:	d009      	beq.n	2000229e <_ntoa_format+0x62>
2000228a:	42bc      	cmp	r4, r7
2000228c:	d207      	bcs.n	2000229e <_ntoa_format+0x62>
2000228e:	2c1f      	cmp	r4, #31
20002290:	d805      	bhi.n	2000229e <_ntoa_format+0x62>
20002292:	f04f 0c30 	mov.w	ip, #48	@ 0x30
20002296:	f805 c004 	strb.w	ip, [r5, r4]
2000229a:	3401      	adds	r4, #1
2000229c:	e7f2      	b.n	20002284 <_ntoa_format+0x48>
2000229e:	f016 0f10 	tst.w	r6, #16
200022a2:	d014      	beq.n	200022ce <_ntoa_format+0x92>
200022a4:	f416 6f80 	tst.w	r6, #1024	@ 0x400
200022a8:	d104      	bne.n	200022b4 <_ntoa_format+0x78>
200022aa:	b11c      	cbz	r4, 200022b4 <_ntoa_format+0x78>
200022ac:	4574      	cmp	r4, lr
200022ae:	d022      	beq.n	200022f6 <_ntoa_format+0xba>
200022b0:	42bc      	cmp	r4, r7
200022b2:	d020      	beq.n	200022f6 <_ntoa_format+0xba>
200022b4:	9b0f      	ldr	r3, [sp, #60]	@ 0x3c
200022b6:	2b10      	cmp	r3, #16
200022b8:	d033      	beq.n	20002322 <_ntoa_format+0xe6>
200022ba:	9b0f      	ldr	r3, [sp, #60]	@ 0x3c
200022bc:	2b02      	cmp	r3, #2
200022be:	d03d      	beq.n	2000233c <_ntoa_format+0x100>
200022c0:	2c1f      	cmp	r4, #31
200022c2:	d80e      	bhi.n	200022e2 <_ntoa_format+0xa6>
200022c4:	f04f 0c30 	mov.w	ip, #48	@ 0x30
200022c8:	f805 c004 	strb.w	ip, [r5, r4]
200022cc:	3401      	adds	r4, #1
200022ce:	2c1f      	cmp	r4, #31
200022d0:	d807      	bhi.n	200022e2 <_ntoa_format+0xa6>
200022d2:	f1b8 0f00 	cmp.w	r8, #0
200022d6:	d039      	beq.n	2000234c <_ntoa_format+0x110>
200022d8:	f04f 0c2d 	mov.w	ip, #45	@ 0x2d
200022dc:	f805 c004 	strb.w	ip, [r5, r4]
200022e0:	3401      	adds	r4, #1
200022e2:	9603      	str	r6, [sp, #12]
200022e4:	9702      	str	r7, [sp, #8]
200022e6:	9401      	str	r4, [sp, #4]
200022e8:	9500      	str	r5, [sp, #0]
200022ea:	464b      	mov	r3, r9
200022ec:	f7ff ff67 	bl	200021be <_out_rev>
200022f0:	b005      	add	sp, #20
200022f2:	e8bd 83f0 	ldmia.w	sp!, {r4, r5, r6, r7, r8, r9, pc}
200022f6:	f1b4 0c01 	subs.w	ip, r4, #1
200022fa:	d01d      	beq.n	20002338 <_ntoa_format+0xfc>
200022fc:	9b0f      	ldr	r3, [sp, #60]	@ 0x3c
200022fe:	2b10      	cmp	r3, #16
20002300:	d00e      	beq.n	20002320 <_ntoa_format+0xe4>
20002302:	4664      	mov	r4, ip
20002304:	9b0f      	ldr	r3, [sp, #60]	@ 0x3c
20002306:	2b10      	cmp	r3, #16
20002308:	d1d7      	bne.n	200022ba <_ntoa_format+0x7e>
2000230a:	f016 0f20 	tst.w	r6, #32
2000230e:	d0d4      	beq.n	200022ba <_ntoa_format+0x7e>
20002310:	2c1f      	cmp	r4, #31
20002312:	d8d2      	bhi.n	200022ba <_ntoa_format+0x7e>
20002314:	f04f 0c58 	mov.w	ip, #88	@ 0x58
20002318:	f805 c004 	strb.w	ip, [r5, r4]
2000231c:	3401      	adds	r4, #1
2000231e:	e7cf      	b.n	200022c0 <_ntoa_format+0x84>
20002320:	3c02      	subs	r4, #2
20002322:	f016 0f20 	tst.w	r6, #32
20002326:	d1ed      	bne.n	20002304 <_ntoa_format+0xc8>
20002328:	2c1f      	cmp	r4, #31
2000232a:	d8eb      	bhi.n	20002304 <_ntoa_format+0xc8>
2000232c:	f04f 0c78 	mov.w	ip, #120	@ 0x78
20002330:	f805 c004 	strb.w	ip, [r5, r4]
20002334:	3401      	adds	r4, #1
20002336:	e7c3      	b.n	200022c0 <_ntoa_format+0x84>
20002338:	4664      	mov	r4, ip
2000233a:	e7bb      	b.n	200022b4 <_ntoa_format+0x78>
2000233c:	2c1f      	cmp	r4, #31
2000233e:	d8d0      	bhi.n	200022e2 <_ntoa_format+0xa6>
20002340:	f04f 0c62 	mov.w	ip, #98	@ 0x62
20002344:	f805 c004 	strb.w	ip, [r5, r4]
20002348:	3401      	adds	r4, #1
2000234a:	e7b9      	b.n	200022c0 <_ntoa_format+0x84>
2000234c:	f016 0f04 	tst.w	r6, #4
20002350:	d005      	beq.n	2000235e <_ntoa_format+0x122>
20002352:	f04f 0c2b 	mov.w	ip, #43	@ 0x2b
20002356:	f805 c004 	strb.w	ip, [r5, r4]
2000235a:	3401      	adds	r4, #1
2000235c:	e7c1      	b.n	200022e2 <_ntoa_format+0xa6>
2000235e:	f016 0f08 	tst.w	r6, #8
20002362:	d0be      	beq.n	200022e2 <_ntoa_format+0xa6>
20002364:	f04f 0c20 	mov.w	ip, #32
20002368:	f805 c004 	strb.w	ip, [r5, r4]
2000236c:	3401      	adds	r4, #1
2000236e:	e7b8      	b.n	200022e2 <_ntoa_format+0xa6>

20002370 <_ntoa_long>:
20002370:	b5f0      	push	{r4, r5, r6, r7, lr}
20002372:	b091      	sub	sp, #68	@ 0x44
20002374:	9c16      	ldr	r4, [sp, #88]	@ 0x58
20002376:	9d18      	ldr	r5, [sp, #96]	@ 0x60
20002378:	9e1b      	ldr	r6, [sp, #108]	@ 0x6c
2000237a:	b90c      	cbnz	r4, 20002380 <_ntoa_long+0x10>
2000237c:	f026 0610 	bic.w	r6, r6, #16
20002380:	f416 6e80 	ands.w	lr, r6, #1024	@ 0x400
20002384:	d01d      	beq.n	200023c2 <_ntoa_long+0x52>
20002386:	b364      	cbz	r4, 200023e2 <_ntoa_long+0x72>
20002388:	f04f 0e00 	mov.w	lr, #0
2000238c:	e019      	b.n	200023c2 <_ntoa_long+0x52>
2000238e:	f016 0f20 	tst.w	r6, #32
20002392:	d024      	beq.n	200023de <_ntoa_long+0x6e>
20002394:	2741      	movs	r7, #65	@ 0x41
20002396:	44bc      	add	ip, r7
20002398:	fa5f fc8c 	uxtb.w	ip, ip
2000239c:	f1ac 0c0a 	sub.w	ip, ip, #10
200023a0:	fa5f fc8c 	uxtb.w	ip, ip
200023a4:	f10e 0701 	add.w	r7, lr, #1
200023a8:	f10e 0e40 	add.w	lr, lr, #64	@ 0x40
200023ac:	44ee      	add	lr, sp
200023ae:	f80e cc20 	strb.w	ip, [lr, #-32]
200023b2:	fbb4 fcf5 	udiv	ip, r4, r5
200023b6:	42ac      	cmp	r4, r5
200023b8:	d314      	bcc.n	200023e4 <_ntoa_long+0x74>
200023ba:	2f1f      	cmp	r7, #31
200023bc:	d812      	bhi.n	200023e4 <_ntoa_long+0x74>
200023be:	46be      	mov	lr, r7
200023c0:	4664      	mov	r4, ip
200023c2:	fbb4 fcf5 	udiv	ip, r4, r5
200023c6:	fb05 4c1c 	mls	ip, r5, ip, r4
200023ca:	fa5f fc8c 	uxtb.w	ip, ip
200023ce:	f1bc 0f09 	cmp.w	ip, #9
200023d2:	d8dc      	bhi.n	2000238e <_ntoa_long+0x1e>
200023d4:	f10c 0c30 	add.w	ip, ip, #48	@ 0x30
200023d8:	fa5f fc8c 	uxtb.w	ip, ip
200023dc:	e7e2      	b.n	200023a4 <_ntoa_long+0x34>
200023de:	2761      	movs	r7, #97	@ 0x61
200023e0:	e7d9      	b.n	20002396 <_ntoa_long+0x26>
200023e2:	4627      	mov	r7, r4
200023e4:	9606      	str	r6, [sp, #24]
200023e6:	9c1a      	ldr	r4, [sp, #104]	@ 0x68
200023e8:	9405      	str	r4, [sp, #20]
200023ea:	9c19      	ldr	r4, [sp, #100]	@ 0x64
200023ec:	9404      	str	r4, [sp, #16]
200023ee:	9503      	str	r5, [sp, #12]
200023f0:	f89d 405c 	ldrb.w	r4, [sp, #92]	@ 0x5c
200023f4:	9402      	str	r4, [sp, #8]
200023f6:	9701      	str	r7, [sp, #4]
200023f8:	ac08      	add	r4, sp, #32
200023fa:	9400      	str	r4, [sp, #0]
200023fc:	f7ff ff1e 	bl	2000223c <_ntoa_format>
20002400:	b011      	add	sp, #68	@ 0x44
20002402:	bdf0      	pop	{r4, r5, r6, r7, pc}

20002404 <_ntoa_long_long>:
20002404:	e92d 4ff0 	stmdb	sp!, {r4, r5, r6, r7, r8, r9, sl, fp, lr}
20002408:	b095      	sub	sp, #84	@ 0x54
2000240a:	9009      	str	r0, [sp, #36]	@ 0x24
2000240c:	910a      	str	r1, [sp, #40]	@ 0x28
2000240e:	920b      	str	r2, [sp, #44]	@ 0x2c
20002410:	4698      	mov	r8, r3
20002412:	f8dd b078 	ldr.w	fp, [sp, #120]	@ 0x78
20002416:	f8dd 907c 	ldr.w	r9, [sp, #124]	@ 0x7c
2000241a:	9d22      	ldr	r5, [sp, #136]	@ 0x88
2000241c:	9f23      	ldr	r7, [sp, #140]	@ 0x8c
2000241e:	9e26      	ldr	r6, [sp, #152]	@ 0x98
20002420:	ea5b 0209 	orrs.w	r2, fp, r9
20002424:	d101      	bne.n	2000242a <_ntoa_long_long+0x26>
20002426:	f026 0610 	bic.w	r6, r6, #16
2000242a:	f416 6480 	ands.w	r4, r6, #1024	@ 0x400
2000242e:	d024      	beq.n	2000247a <_ntoa_long_long+0x76>
20002430:	ea5b 0209 	orrs.w	r2, fp, r9
20002434:	d02f      	beq.n	20002496 <_ntoa_long_long+0x92>
20002436:	2400      	movs	r4, #0
20002438:	e01f      	b.n	2000247a <_ntoa_long_long+0x76>
2000243a:	f016 0f20 	tst.w	r6, #32
2000243e:	d028      	beq.n	20002492 <_ntoa_long_long+0x8e>
20002440:	2341      	movs	r3, #65	@ 0x41
20002442:	4413      	add	r3, r2
20002444:	b2db      	uxtb	r3, r3
20002446:	3b0a      	subs	r3, #10
20002448:	b2db      	uxtb	r3, r3
2000244a:	f104 0a01 	add.w	sl, r4, #1
2000244e:	f104 0250 	add.w	r2, r4, #80	@ 0x50
20002452:	eb0d 0402 	add.w	r4, sp, r2
20002456:	f804 3c20 	strb.w	r3, [r4, #-32]
2000245a:	462a      	mov	r2, r5
2000245c:	463b      	mov	r3, r7
2000245e:	4658      	mov	r0, fp
20002460:	4649      	mov	r1, r9
20002462:	f001 fb7d 	bl	20003b60 <__aeabi_uldivmod>
20002466:	45ab      	cmp	fp, r5
20002468:	eb79 0907 	sbcs.w	r9, r9, r7
2000246c:	d315      	bcc.n	2000249a <_ntoa_long_long+0x96>
2000246e:	f1ba 0f1f 	cmp.w	sl, #31
20002472:	d812      	bhi.n	2000249a <_ntoa_long_long+0x96>
20002474:	4654      	mov	r4, sl
20002476:	4683      	mov	fp, r0
20002478:	4689      	mov	r9, r1
2000247a:	462a      	mov	r2, r5
2000247c:	463b      	mov	r3, r7
2000247e:	4658      	mov	r0, fp
20002480:	4649      	mov	r1, r9
20002482:	f001 fb6d 	bl	20003b60 <__aeabi_uldivmod>
20002486:	b2d2      	uxtb	r2, r2
20002488:	2a09      	cmp	r2, #9
2000248a:	d8d6      	bhi.n	2000243a <_ntoa_long_long+0x36>
2000248c:	3230      	adds	r2, #48	@ 0x30
2000248e:	b2d3      	uxtb	r3, r2
20002490:	e7db      	b.n	2000244a <_ntoa_long_long+0x46>
20002492:	2361      	movs	r3, #97	@ 0x61
20002494:	e7d5      	b.n	20002442 <_ntoa_long_long+0x3e>
20002496:	f04f 0a00 	mov.w	sl, #0
2000249a:	9606      	str	r6, [sp, #24]
2000249c:	9b25      	ldr	r3, [sp, #148]	@ 0x94
2000249e:	9305      	str	r3, [sp, #20]
200024a0:	9b24      	ldr	r3, [sp, #144]	@ 0x90
200024a2:	9304      	str	r3, [sp, #16]
200024a4:	9503      	str	r5, [sp, #12]
200024a6:	f89d 3080 	ldrb.w	r3, [sp, #128]	@ 0x80
200024aa:	9302      	str	r3, [sp, #8]
200024ac:	f8cd a004 	str.w	sl, [sp, #4]
200024b0:	ab0c      	add	r3, sp, #48	@ 0x30
200024b2:	9300      	str	r3, [sp, #0]
200024b4:	4643      	mov	r3, r8
200024b6:	9a0b      	ldr	r2, [sp, #44]	@ 0x2c
200024b8:	990a      	ldr	r1, [sp, #40]	@ 0x28
200024ba:	9809      	ldr	r0, [sp, #36]	@ 0x24
200024bc:	f7ff febe 	bl	2000223c <_ntoa_format>
200024c0:	b015      	add	sp, #84	@ 0x54
200024c2:	e8bd 8ff0 	ldmia.w	sp!, {r4, r5, r6, r7, r8, r9, sl, fp, pc}
	...

200024c8 <_etoa>:
200024c8:	e92d 4ff0 	stmdb	sp!, {r4, r5, r6, r7, r8, r9, sl, fp, lr}
200024cc:	b093      	sub	sp, #76	@ 0x4c
200024ce:	4604      	mov	r4, r0
200024d0:	460d      	mov	r5, r1
200024d2:	4617      	mov	r7, r2
200024d4:	461e      	mov	r6, r3
200024d6:	e9dd ab1c 	ldrd	sl, fp, [sp, #112]	@ 0x70
200024da:	4652      	mov	r2, sl
200024dc:	465b      	mov	r3, fp
200024de:	4650      	mov	r0, sl
200024e0:	4659      	mov	r1, fp
200024e2:	f7ff fdf3 	bl	200020cc <__wrap___aeabi_dcmpun>
200024e6:	2800      	cmp	r0, #0
200024e8:	f040 80f3 	bne.w	200026d2 <_etoa+0x20a>
200024ec:	f04f 32ff 	mov.w	r2, #4294967295
200024f0:	4bad      	ldr	r3, [pc, #692]	@ (200027a8 <_etoa+0x2e0>)
200024f2:	4650      	mov	r0, sl
200024f4:	4659      	mov	r1, fp
200024f6:	f7ff fe37 	bl	20002168 <__wrap___aeabi_dcmpgt>
200024fa:	2800      	cmp	r0, #0
200024fc:	f040 80e9 	bne.w	200026d2 <_etoa+0x20a>
20002500:	f04f 32ff 	mov.w	r2, #4294967295
20002504:	f46f 1380 	mvn.w	r3, #1048576	@ 0x100000
20002508:	4650      	mov	r0, sl
2000250a:	4659      	mov	r1, fp
2000250c:	f7ff fdf0 	bl	200020f0 <__wrap___aeabi_dcmplt>
20002510:	2800      	cmp	r0, #0
20002512:	f040 80de 	bne.w	200026d2 <_etoa+0x20a>
20002516:	2200      	movs	r2, #0
20002518:	2300      	movs	r3, #0
2000251a:	4650      	mov	r0, sl
2000251c:	4659      	mov	r1, fp
2000251e:	f7ff fde7 	bl	200020f0 <__wrap___aeabi_dcmplt>
20002522:	2800      	cmp	r0, #0
20002524:	f040 80e6 	bne.w	200026f4 <_etoa+0x22c>
20002528:	e9cd ab06 	strd	sl, fp, [sp, #24]
2000252c:	9b20      	ldr	r3, [sp, #128]	@ 0x80
2000252e:	f413 6380 	ands.w	r3, r3, #1024	@ 0x400
20002532:	930f      	str	r3, [sp, #60]	@ 0x3c
20002534:	d101      	bne.n	2000253a <_etoa+0x72>
20002536:	2306      	movs	r3, #6
20002538:	931e      	str	r3, [sp, #120]	@ 0x78
2000253a:	e9dd 2306 	ldrd	r2, r3, [sp, #24]
2000253e:	4610      	mov	r0, r2
20002540:	4619      	mov	r1, r3
20002542:	e9cd 010a 	strd	r0, r1, [sp, #40]	@ 0x28
20002546:	9b07      	ldr	r3, [sp, #28]
20002548:	ea52 0103 	orrs.w	r1, r2, r3
2000254c:	f000 80dc 	beq.w	20002708 <_etoa+0x240>
20002550:	f3c3 500a 	ubfx	r0, r3, #20, #11
20002554:	f3c3 0313 	ubfx	r3, r3, #0, #20
20002558:	4690      	mov	r8, r2
2000255a:	f043 597f 	orr.w	r9, r3, #1069547520	@ 0x3fc00000
2000255e:	f449 1940 	orr.w	r9, r9, #3145728	@ 0x300000
20002562:	f2a0 30ff 	subw	r0, r0, #1023	@ 0x3ff
20002566:	f7ff fd69 	bl	2000203c <__wrap___aeabi_i2d>
2000256a:	a37d      	add	r3, pc, #500	@ (adr r3, 20002760 <_etoa+0x298>)
2000256c:	e9d3 2300 	ldrd	r2, r3, [r3]
20002570:	f7ff fcf0 	bl	20001f54 <__wrap___aeabi_dmul>
20002574:	a37c      	add	r3, pc, #496	@ (adr r3, 20002768 <_etoa+0x2a0>)
20002576:	e9d3 2300 	ldrd	r2, r3, [r3]
2000257a:	f7ff fcc3 	bl	20001f04 <__wrap___aeabi_dadd>
2000257e:	e9cd 0108 	strd	r0, r1, [sp, #32]
20002582:	2200      	movs	r2, #0
20002584:	4b89      	ldr	r3, [pc, #548]	@ (200027ac <_etoa+0x2e4>)
20002586:	4640      	mov	r0, r8
20002588:	4649      	mov	r1, r9
2000258a:	f7ff fccf 	bl	20001f2c <__wrap___aeabi_dsub>
2000258e:	a378      	add	r3, pc, #480	@ (adr r3, 20002770 <_etoa+0x2a8>)
20002590:	e9d3 2300 	ldrd	r2, r3, [r3]
20002594:	f7ff fcde 	bl	20001f54 <__wrap___aeabi_dmul>
20002598:	4602      	mov	r2, r0
2000259a:	460b      	mov	r3, r1
2000259c:	e9dd 0108 	ldrd	r0, r1, [sp, #32]
200025a0:	f7ff fcb0 	bl	20001f04 <__wrap___aeabi_dadd>
200025a4:	f7ff fd6e 	bl	20002084 <__wrap___aeabi_d2iz>
200025a8:	9008      	str	r0, [sp, #32]
200025aa:	f7ff fd47 	bl	2000203c <__wrap___aeabi_i2d>
200025ae:	4680      	mov	r8, r0
200025b0:	4689      	mov	r9, r1
200025b2:	a371      	add	r3, pc, #452	@ (adr r3, 20002778 <_etoa+0x2b0>)
200025b4:	e9d3 2300 	ldrd	r2, r3, [r3]
200025b8:	f7ff fccc 	bl	20001f54 <__wrap___aeabi_dmul>
200025bc:	2200      	movs	r2, #0
200025be:	4b7c      	ldr	r3, [pc, #496]	@ (200027b0 <_etoa+0x2e8>)
200025c0:	f7ff fca0 	bl	20001f04 <__wrap___aeabi_dadd>
200025c4:	f7ff fd5e 	bl	20002084 <__wrap___aeabi_d2iz>
200025c8:	900a      	str	r0, [sp, #40]	@ 0x28
200025ca:	a36d      	add	r3, pc, #436	@ (adr r3, 20002780 <_etoa+0x2b8>)
200025cc:	e9d3 2300 	ldrd	r2, r3, [r3]
200025d0:	4640      	mov	r0, r8
200025d2:	4649      	mov	r1, r9
200025d4:	f7ff fcbe 	bl	20001f54 <__wrap___aeabi_dmul>
200025d8:	4680      	mov	r8, r0
200025da:	4689      	mov	r9, r1
200025dc:	980a      	ldr	r0, [sp, #40]	@ 0x28
200025de:	f7ff fd2d 	bl	2000203c <__wrap___aeabi_i2d>
200025e2:	a369      	add	r3, pc, #420	@ (adr r3, 20002788 <_etoa+0x2c0>)
200025e4:	e9d3 2300 	ldrd	r2, r3, [r3]
200025e8:	f7ff fcb4 	bl	20001f54 <__wrap___aeabi_dmul>
200025ec:	4602      	mov	r2, r0
200025ee:	460b      	mov	r3, r1
200025f0:	4640      	mov	r0, r8
200025f2:	4649      	mov	r1, r9
200025f4:	f7ff fc9a 	bl	20001f2c <__wrap___aeabi_dsub>
200025f8:	4680      	mov	r8, r0
200025fa:	4689      	mov	r9, r1
200025fc:	4602      	mov	r2, r0
200025fe:	460b      	mov	r3, r1
20002600:	f7ff fca8 	bl	20001f54 <__wrap___aeabi_dmul>
20002604:	e9cd 010c 	strd	r0, r1, [sp, #48]	@ 0x30
20002608:	9b0a      	ldr	r3, [sp, #40]	@ 0x28
2000260a:	f203 33ff 	addw	r3, r3, #1023	@ 0x3ff
2000260e:	2100      	movs	r1, #0
20002610:	2200      	movs	r2, #0
20002612:	e9cd 120a 	strd	r1, r2, [sp, #40]	@ 0x28
20002616:	051b      	lsls	r3, r3, #20
20002618:	930b      	str	r3, [sp, #44]	@ 0x2c
2000261a:	2300      	movs	r3, #0
2000261c:	930a      	str	r3, [sp, #40]	@ 0x28
2000261e:	4642      	mov	r2, r8
20002620:	464b      	mov	r3, r9
20002622:	4640      	mov	r0, r8
20002624:	4649      	mov	r1, r9
20002626:	f7ff fc6d 	bl	20001f04 <__wrap___aeabi_dadd>
2000262a:	e9cd 0110 	strd	r0, r1, [sp, #64]	@ 0x40
2000262e:	4642      	mov	r2, r8
20002630:	464b      	mov	r3, r9
20002632:	2000      	movs	r0, #0
20002634:	f04f 4180 	mov.w	r1, #1073741824	@ 0x40000000
20002638:	f7ff fc78 	bl	20001f2c <__wrap___aeabi_dsub>
2000263c:	4680      	mov	r8, r0
2000263e:	4689      	mov	r9, r1
20002640:	2200      	movs	r2, #0
20002642:	4b5c      	ldr	r3, [pc, #368]	@ (200027b4 <_etoa+0x2ec>)
20002644:	e9dd 010c 	ldrd	r0, r1, [sp, #48]	@ 0x30
20002648:	f7ff fcaa 	bl	20001fa0 <__wrap___aeabi_ddiv>
2000264c:	2200      	movs	r2, #0
2000264e:	4b5a      	ldr	r3, [pc, #360]	@ (200027b8 <_etoa+0x2f0>)
20002650:	f7ff fc58 	bl	20001f04 <__wrap___aeabi_dadd>
20002654:	4602      	mov	r2, r0
20002656:	460b      	mov	r3, r1
20002658:	e9dd 010c 	ldrd	r0, r1, [sp, #48]	@ 0x30
2000265c:	f7ff fca0 	bl	20001fa0 <__wrap___aeabi_ddiv>
20002660:	2200      	movs	r2, #0
20002662:	4b56      	ldr	r3, [pc, #344]	@ (200027bc <_etoa+0x2f4>)
20002664:	f7ff fc4e 	bl	20001f04 <__wrap___aeabi_dadd>
20002668:	4602      	mov	r2, r0
2000266a:	460b      	mov	r3, r1
2000266c:	e9dd 010c 	ldrd	r0, r1, [sp, #48]	@ 0x30
20002670:	f7ff fc96 	bl	20001fa0 <__wrap___aeabi_ddiv>
20002674:	4602      	mov	r2, r0
20002676:	460b      	mov	r3, r1
20002678:	4640      	mov	r0, r8
2000267a:	4649      	mov	r1, r9
2000267c:	f7ff fc42 	bl	20001f04 <__wrap___aeabi_dadd>
20002680:	4602      	mov	r2, r0
20002682:	460b      	mov	r3, r1
20002684:	e9dd 0110 	ldrd	r0, r1, [sp, #64]	@ 0x40
20002688:	f7ff fc8a 	bl	20001fa0 <__wrap___aeabi_ddiv>
2000268c:	2200      	movs	r2, #0
2000268e:	4b4c      	ldr	r3, [pc, #304]	@ (200027c0 <_etoa+0x2f8>)
20002690:	f7ff fc38 	bl	20001f04 <__wrap___aeabi_dadd>
20002694:	e9dd 230a 	ldrd	r2, r3, [sp, #40]	@ 0x28
20002698:	f7ff fc5c 	bl	20001f54 <__wrap___aeabi_dmul>
2000269c:	4680      	mov	r8, r0
2000269e:	4689      	mov	r9, r1
200026a0:	e9cd 890a 	strd	r8, r9, [sp, #40]	@ 0x28
200026a4:	e9dd 2306 	ldrd	r2, r3, [sp, #24]
200026a8:	f7ff fd5e 	bl	20002168 <__wrap___aeabi_dcmpgt>
200026ac:	b150      	cbz	r0, 200026c4 <_etoa+0x1fc>
200026ae:	9b08      	ldr	r3, [sp, #32]
200026b0:	3b01      	subs	r3, #1
200026b2:	9308      	str	r3, [sp, #32]
200026b4:	2200      	movs	r2, #0
200026b6:	4b40      	ldr	r3, [pc, #256]	@ (200027b8 <_etoa+0x2f0>)
200026b8:	4640      	mov	r0, r8
200026ba:	4649      	mov	r1, r9
200026bc:	f7ff fc70 	bl	20001fa0 <__wrap___aeabi_ddiv>
200026c0:	e9cd 010a 	strd	r0, r1, [sp, #40]	@ 0x28
200026c4:	9b08      	ldr	r3, [sp, #32]
200026c6:	3363      	adds	r3, #99	@ 0x63
200026c8:	2bc6      	cmp	r3, #198	@ 0xc6
200026ca:	d846      	bhi.n	2000275a <_etoa+0x292>
200026cc:	f04f 0804 	mov.w	r8, #4
200026d0:	e01e      	b.n	20002710 <_etoa+0x248>
200026d2:	9b20      	ldr	r3, [sp, #128]	@ 0x80
200026d4:	9304      	str	r3, [sp, #16]
200026d6:	9b1f      	ldr	r3, [sp, #124]	@ 0x7c
200026d8:	9303      	str	r3, [sp, #12]
200026da:	9b1e      	ldr	r3, [sp, #120]	@ 0x78
200026dc:	9302      	str	r3, [sp, #8]
200026de:	e9cd ab00 	strd	sl, fp, [sp]
200026e2:	4633      	mov	r3, r6
200026e4:	463a      	mov	r2, r7
200026e6:	4629      	mov	r1, r5
200026e8:	4620      	mov	r0, r4
200026ea:	f000 f8fd 	bl	200028e8 <_ftoa>
200026ee:	b013      	add	sp, #76	@ 0x4c
200026f0:	e8bd 8ff0 	ldmia.w	sp!, {r4, r5, r6, r7, r8, r9, sl, fp, pc}
200026f4:	ed9f 7b26 	vldr	d7, [pc, #152]	@ 20002790 <_etoa+0x2c8>
200026f8:	ed8d 7b06 	vstr	d7, [sp, #24]
200026fc:	f8cd a018 	str.w	sl, [sp, #24]
20002700:	f10b 4300 	add.w	r3, fp, #2147483648	@ 0x80000000
20002704:	9307      	str	r3, [sp, #28]
20002706:	e711      	b.n	2000252c <_etoa+0x64>
20002708:	2300      	movs	r3, #0
2000270a:	9308      	str	r3, [sp, #32]
2000270c:	f04f 0804 	mov.w	r8, #4
20002710:	9b20      	ldr	r3, [sp, #128]	@ 0x80
20002712:	f413 6f00 	tst.w	r3, #2048	@ 0x800
20002716:	d05f      	beq.n	200027d8 <_etoa+0x310>
20002718:	e9dd 120a 	ldrd	r1, r2, [sp, #40]	@ 0x28
2000271c:	4613      	mov	r3, r2
2000271e:	430b      	orrs	r3, r1
20002720:	d013      	beq.n	2000274a <_etoa+0x282>
20002722:	a31d      	add	r3, pc, #116	@ (adr r3, 20002798 <_etoa+0x2d0>)
20002724:	e9d3 2300 	ldrd	r2, r3, [r3]
20002728:	e9dd 0106 	ldrd	r0, r1, [sp, #24]
2000272c:	f7ff fd08 	bl	20002140 <__wrap___aeabi_dcmpge>
20002730:	2800      	cmp	r0, #0
20002732:	f000 80b4 	beq.w	2000289e <_etoa+0x3d6>
20002736:	a31a      	add	r3, pc, #104	@ (adr r3, 200027a0 <_etoa+0x2d8>)
20002738:	e9d3 2300 	ldrd	r2, r3, [r3]
2000273c:	e9dd 0106 	ldrd	r0, r1, [sp, #24]
20002740:	f7ff fcd6 	bl	200020f0 <__wrap___aeabi_dcmplt>
20002744:	2800      	cmp	r0, #0
20002746:	f000 80aa 	beq.w	2000289e <_etoa+0x3d6>
2000274a:	9a1e      	ldr	r2, [sp, #120]	@ 0x78
2000274c:	9b08      	ldr	r3, [sp, #32]
2000274e:	429a      	cmp	r2, r3
20002750:	dd38      	ble.n	200027c4 <_etoa+0x2fc>
20002752:	1ad3      	subs	r3, r2, r3
20002754:	3b01      	subs	r3, #1
20002756:	931e      	str	r3, [sp, #120]	@ 0x78
20002758:	e036      	b.n	200027c8 <_etoa+0x300>
2000275a:	f04f 0805 	mov.w	r8, #5
2000275e:	e7d7      	b.n	20002710 <_etoa+0x248>
20002760:	509f79fb 	.word	0x509f79fb
20002764:	3fd34413 	.word	0x3fd34413
20002768:	8b60c8b3 	.word	0x8b60c8b3
2000276c:	3fc68a28 	.word	0x3fc68a28
20002770:	636f4361 	.word	0x636f4361
20002774:	3fd287a7 	.word	0x3fd287a7
20002778:	0979a371 	.word	0x0979a371
2000277c:	400a934f 	.word	0x400a934f
20002780:	bbb55516 	.word	0xbbb55516
20002784:	40026bb1 	.word	0x40026bb1
20002788:	fefa39ef 	.word	0xfefa39ef
2000278c:	3fe62e42 	.word	0x3fe62e42
	...
20002798:	eb1c432d 	.word	0xeb1c432d
2000279c:	3f1a36e2 	.word	0x3f1a36e2
200027a0:	00000000 	.word	0x00000000
200027a4:	412e8480 	.word	0x412e8480
200027a8:	7fefffff 	.word	0x7fefffff
200027ac:	3ff80000 	.word	0x3ff80000
200027b0:	3fe00000 	.word	0x3fe00000
200027b4:	402c0000 	.word	0x402c0000
200027b8:	40240000 	.word	0x40240000
200027bc:	40180000 	.word	0x40180000
200027c0:	3ff00000 	.word	0x3ff00000
200027c4:	2300      	movs	r3, #0
200027c6:	931e      	str	r3, [sp, #120]	@ 0x78
200027c8:	9b20      	ldr	r3, [sp, #128]	@ 0x80
200027ca:	f443 6380 	orr.w	r3, r3, #1024	@ 0x400
200027ce:	9320      	str	r3, [sp, #128]	@ 0x80
200027d0:	f04f 0800 	mov.w	r8, #0
200027d4:	f8cd 8020 	str.w	r8, [sp, #32]
200027d8:	9b1f      	ldr	r3, [sp, #124]	@ 0x7c
200027da:	4598      	cmp	r8, r3
200027dc:	d269      	bcs.n	200028b2 <_etoa+0x3ea>
200027de:	eba3 0908 	sub.w	r9, r3, r8
200027e2:	9b20      	ldr	r3, [sp, #128]	@ 0x80
200027e4:	f013 0302 	ands.w	r3, r3, #2
200027e8:	930c      	str	r3, [sp, #48]	@ 0x30
200027ea:	d004      	beq.n	200027f6 <_etoa+0x32e>
200027ec:	f1b8 0f00 	cmp.w	r8, #0
200027f0:	d001      	beq.n	200027f6 <_etoa+0x32e>
200027f2:	f04f 0900 	mov.w	r9, #0
200027f6:	9b08      	ldr	r3, [sp, #32]
200027f8:	b13b      	cbz	r3, 2000280a <_etoa+0x342>
200027fa:	e9dd 230a 	ldrd	r2, r3, [sp, #40]	@ 0x28
200027fe:	e9dd 0106 	ldrd	r0, r1, [sp, #24]
20002802:	f7ff fbcd 	bl	20001fa0 <__wrap___aeabi_ddiv>
20002806:	e9cd 0106 	strd	r0, r1, [sp, #24]
2000280a:	2200      	movs	r2, #0
2000280c:	2300      	movs	r3, #0
2000280e:	4650      	mov	r0, sl
20002810:	4659      	mov	r1, fp
20002812:	f7ff fc6d 	bl	200020f0 <__wrap___aeabi_dcmplt>
20002816:	2800      	cmp	r0, #0
20002818:	d14e      	bne.n	200028b8 <_etoa+0x3f0>
2000281a:	9b20      	ldr	r3, [sp, #128]	@ 0x80
2000281c:	f423 6300 	bic.w	r3, r3, #2048	@ 0x800
20002820:	9304      	str	r3, [sp, #16]
20002822:	f8cd 900c 	str.w	r9, [sp, #12]
20002826:	9b1e      	ldr	r3, [sp, #120]	@ 0x78
20002828:	9302      	str	r3, [sp, #8]
2000282a:	ed9d 7b06 	vldr	d7, [sp, #24]
2000282e:	ed8d 7b00 	vstr	d7, [sp]
20002832:	4633      	mov	r3, r6
20002834:	463a      	mov	r2, r7
20002836:	4629      	mov	r1, r5
20002838:	4620      	mov	r0, r4
2000283a:	f000 f855 	bl	200028e8 <_ftoa>
2000283e:	f1b8 0f00 	cmp.w	r8, #0
20002842:	f43f af54 	beq.w	200026ee <_etoa+0x226>
20002846:	9b20      	ldr	r3, [sp, #128]	@ 0x80
20002848:	f013 0f20 	tst.w	r3, #32
2000284c:	d03c      	beq.n	200028c8 <_etoa+0x400>
2000284e:	f04f 0c45 	mov.w	ip, #69	@ 0x45
20002852:	f100 0901 	add.w	r9, r0, #1
20002856:	4633      	mov	r3, r6
20002858:	4602      	mov	r2, r0
2000285a:	4629      	mov	r1, r5
2000285c:	4660      	mov	r0, ip
2000285e:	47a0      	blx	r4
20002860:	9908      	ldr	r1, [sp, #32]
20002862:	ea81 72e1 	eor.w	r2, r1, r1, asr #31
20002866:	eba2 72e1 	sub.w	r2, r2, r1, asr #31
2000286a:	2305      	movs	r3, #5
2000286c:	9305      	str	r3, [sp, #20]
2000286e:	f108 33ff 	add.w	r3, r8, #4294967295
20002872:	9304      	str	r3, [sp, #16]
20002874:	2300      	movs	r3, #0
20002876:	9303      	str	r3, [sp, #12]
20002878:	230a      	movs	r3, #10
2000287a:	9302      	str	r3, [sp, #8]
2000287c:	0fcb      	lsrs	r3, r1, #31
2000287e:	9301      	str	r3, [sp, #4]
20002880:	9200      	str	r2, [sp, #0]
20002882:	4633      	mov	r3, r6
20002884:	464a      	mov	r2, r9
20002886:	4629      	mov	r1, r5
20002888:	4620      	mov	r0, r4
2000288a:	f7ff fd71 	bl	20002370 <_ntoa_long>
2000288e:	9b0c      	ldr	r3, [sp, #48]	@ 0x30
20002890:	2b00      	cmp	r3, #0
20002892:	f43f af2c 	beq.w	200026ee <_etoa+0x226>
20002896:	4602      	mov	r2, r0
20002898:	f8dd 907c 	ldr.w	r9, [sp, #124]	@ 0x7c
2000289c:	e01e      	b.n	200028dc <_etoa+0x414>
2000289e:	9b1e      	ldr	r3, [sp, #120]	@ 0x78
200028a0:	2b00      	cmp	r3, #0
200028a2:	d099      	beq.n	200027d8 <_etoa+0x310>
200028a4:	9b0f      	ldr	r3, [sp, #60]	@ 0x3c
200028a6:	2b00      	cmp	r3, #0
200028a8:	d096      	beq.n	200027d8 <_etoa+0x310>
200028aa:	9b1e      	ldr	r3, [sp, #120]	@ 0x78
200028ac:	3b01      	subs	r3, #1
200028ae:	931e      	str	r3, [sp, #120]	@ 0x78
200028b0:	e792      	b.n	200027d8 <_etoa+0x310>
200028b2:	f04f 0900 	mov.w	r9, #0
200028b6:	e794      	b.n	200027e2 <_etoa+0x31a>
200028b8:	e9dd 0106 	ldrd	r0, r1, [sp, #24]
200028bc:	4602      	mov	r2, r0
200028be:	f101 4300 	add.w	r3, r1, #2147483648	@ 0x80000000
200028c2:	e9cd 2306 	strd	r2, r3, [sp, #24]
200028c6:	e7a8      	b.n	2000281a <_etoa+0x352>
200028c8:	f04f 0c65 	mov.w	ip, #101	@ 0x65
200028cc:	e7c1      	b.n	20002852 <_etoa+0x38a>
200028ce:	f102 0801 	add.w	r8, r2, #1
200028d2:	4633      	mov	r3, r6
200028d4:	4629      	mov	r1, r5
200028d6:	2020      	movs	r0, #32
200028d8:	47a0      	blx	r4
200028da:	4642      	mov	r2, r8
200028dc:	1bd3      	subs	r3, r2, r7
200028de:	454b      	cmp	r3, r9
200028e0:	d3f5      	bcc.n	200028ce <_etoa+0x406>
200028e2:	4610      	mov	r0, r2
200028e4:	e703      	b.n	200026ee <_etoa+0x226>
200028e6:	bf00      	nop

200028e8 <_ftoa>:
200028e8:	e92d 4ff0 	stmdb	sp!, {r4, r5, r6, r7, r8, r9, sl, fp, lr}
200028ec:	ed2d 8b02 	vpush	{d8}
200028f0:	b095      	sub	sp, #84	@ 0x54
200028f2:	9007      	str	r0, [sp, #28]
200028f4:	910a      	str	r1, [sp, #40]	@ 0x28
200028f6:	4692      	mov	sl, r2
200028f8:	469b      	mov	fp, r3
200028fa:	e9dd 8920 	ldrd	r8, r9, [sp, #128]	@ 0x80
200028fe:	9d22      	ldr	r5, [sp, #136]	@ 0x88
20002900:	4642      	mov	r2, r8
20002902:	464b      	mov	r3, r9
20002904:	4640      	mov	r0, r8
20002906:	4649      	mov	r1, r9
20002908:	f7ff fbe0 	bl	200020cc <__wrap___aeabi_dcmpun>
2000290c:	2800      	cmp	r0, #0
2000290e:	d135      	bne.n	2000297c <_ftoa+0x94>
20002910:	f04f 32ff 	mov.w	r2, #4294967295
20002914:	f46f 1380 	mvn.w	r3, #1048576	@ 0x100000
20002918:	4640      	mov	r0, r8
2000291a:	4649      	mov	r1, r9
2000291c:	f7ff fbe8 	bl	200020f0 <__wrap___aeabi_dcmplt>
20002920:	2800      	cmp	r0, #0
20002922:	d13a      	bne.n	2000299a <_ftoa+0xb2>
20002924:	f04f 32ff 	mov.w	r2, #4294967295
20002928:	4bb1      	ldr	r3, [pc, #708]	@ (20002bf0 <_ftoa+0x308>)
2000292a:	4640      	mov	r0, r8
2000292c:	4649      	mov	r1, r9
2000292e:	f7ff fc1b 	bl	20002168 <__wrap___aeabi_dcmpgt>
20002932:	2800      	cmp	r0, #0
20002934:	d140      	bne.n	200029b8 <_ftoa+0xd0>
20002936:	a3aa      	add	r3, pc, #680	@ (adr r3, 20002be0 <_ftoa+0x2f8>)
20002938:	e9d3 2300 	ldrd	r2, r3, [r3]
2000293c:	4640      	mov	r0, r8
2000293e:	4649      	mov	r1, r9
20002940:	f7ff fc12 	bl	20002168 <__wrap___aeabi_dcmpgt>
20002944:	2800      	cmp	r0, #0
20002946:	d14d      	bne.n	200029e4 <_ftoa+0xfc>
20002948:	a3a7      	add	r3, pc, #668	@ (adr r3, 20002be8 <_ftoa+0x300>)
2000294a:	e9d3 2300 	ldrd	r2, r3, [r3]
2000294e:	4640      	mov	r0, r8
20002950:	4649      	mov	r1, r9
20002952:	f7ff fbcd 	bl	200020f0 <__wrap___aeabi_dcmplt>
20002956:	2800      	cmp	r0, #0
20002958:	d144      	bne.n	200029e4 <_ftoa+0xfc>
2000295a:	2200      	movs	r2, #0
2000295c:	2300      	movs	r3, #0
2000295e:	4640      	mov	r0, r8
20002960:	4649      	mov	r1, r9
20002962:	f7ff fbc5 	bl	200020f0 <__wrap___aeabi_dcmplt>
20002966:	2800      	cmp	r0, #0
20002968:	d14a      	bne.n	20002a00 <_ftoa+0x118>
2000296a:	2300      	movs	r3, #0
2000296c:	930b      	str	r3, [sp, #44]	@ 0x2c
2000296e:	9b24      	ldr	r3, [sp, #144]	@ 0x90
20002970:	f413 6f80 	tst.w	r3, #1024	@ 0x400
20002974:	f000 80b5 	beq.w	20002ae2 <_ftoa+0x1fa>
20002978:	2400      	movs	r4, #0
2000297a:	e054      	b.n	20002a26 <_ftoa+0x13e>
2000297c:	9b24      	ldr	r3, [sp, #144]	@ 0x90
2000297e:	9303      	str	r3, [sp, #12]
20002980:	9b23      	ldr	r3, [sp, #140]	@ 0x8c
20002982:	9302      	str	r3, [sp, #8]
20002984:	2303      	movs	r3, #3
20002986:	9301      	str	r3, [sp, #4]
20002988:	4b9a      	ldr	r3, [pc, #616]	@ (20002bf4 <_ftoa+0x30c>)
2000298a:	9300      	str	r3, [sp, #0]
2000298c:	465b      	mov	r3, fp
2000298e:	4652      	mov	r2, sl
20002990:	990a      	ldr	r1, [sp, #40]	@ 0x28
20002992:	9807      	ldr	r0, [sp, #28]
20002994:	f7ff fc13 	bl	200021be <_out_rev>
20002998:	e11b      	b.n	20002bd2 <_ftoa+0x2ea>
2000299a:	9b24      	ldr	r3, [sp, #144]	@ 0x90
2000299c:	9303      	str	r3, [sp, #12]
2000299e:	9b23      	ldr	r3, [sp, #140]	@ 0x8c
200029a0:	9302      	str	r3, [sp, #8]
200029a2:	2304      	movs	r3, #4
200029a4:	9301      	str	r3, [sp, #4]
200029a6:	4b94      	ldr	r3, [pc, #592]	@ (20002bf8 <_ftoa+0x310>)
200029a8:	9300      	str	r3, [sp, #0]
200029aa:	465b      	mov	r3, fp
200029ac:	4652      	mov	r2, sl
200029ae:	990a      	ldr	r1, [sp, #40]	@ 0x28
200029b0:	9807      	ldr	r0, [sp, #28]
200029b2:	f7ff fc04 	bl	200021be <_out_rev>
200029b6:	e10c      	b.n	20002bd2 <_ftoa+0x2ea>
200029b8:	9b24      	ldr	r3, [sp, #144]	@ 0x90
200029ba:	f013 0f04 	tst.w	r3, #4
200029be:	d00e      	beq.n	200029de <_ftoa+0xf6>
200029c0:	4b8e      	ldr	r3, [pc, #568]	@ (20002bfc <_ftoa+0x314>)
200029c2:	2204      	movs	r2, #4
200029c4:	9924      	ldr	r1, [sp, #144]	@ 0x90
200029c6:	9103      	str	r1, [sp, #12]
200029c8:	9923      	ldr	r1, [sp, #140]	@ 0x8c
200029ca:	9102      	str	r1, [sp, #8]
200029cc:	9201      	str	r2, [sp, #4]
200029ce:	9300      	str	r3, [sp, #0]
200029d0:	465b      	mov	r3, fp
200029d2:	4652      	mov	r2, sl
200029d4:	990a      	ldr	r1, [sp, #40]	@ 0x28
200029d6:	9807      	ldr	r0, [sp, #28]
200029d8:	f7ff fbf1 	bl	200021be <_out_rev>
200029dc:	e0f9      	b.n	20002bd2 <_ftoa+0x2ea>
200029de:	4b88      	ldr	r3, [pc, #544]	@ (20002c00 <_ftoa+0x318>)
200029e0:	2203      	movs	r2, #3
200029e2:	e7ef      	b.n	200029c4 <_ftoa+0xdc>
200029e4:	9b24      	ldr	r3, [sp, #144]	@ 0x90
200029e6:	9304      	str	r3, [sp, #16]
200029e8:	9b23      	ldr	r3, [sp, #140]	@ 0x8c
200029ea:	9303      	str	r3, [sp, #12]
200029ec:	9502      	str	r5, [sp, #8]
200029ee:	e9cd 8900 	strd	r8, r9, [sp]
200029f2:	465b      	mov	r3, fp
200029f4:	4652      	mov	r2, sl
200029f6:	990a      	ldr	r1, [sp, #40]	@ 0x28
200029f8:	9807      	ldr	r0, [sp, #28]
200029fa:	f7ff fd65 	bl	200024c8 <_etoa>
200029fe:	e0e8      	b.n	20002bd2 <_ftoa+0x2ea>
20002a00:	4642      	mov	r2, r8
20002a02:	464b      	mov	r3, r9
20002a04:	2000      	movs	r0, #0
20002a06:	2100      	movs	r1, #0
20002a08:	f7ff fa90 	bl	20001f2c <__wrap___aeabi_dsub>
20002a0c:	4680      	mov	r8, r0
20002a0e:	4689      	mov	r9, r1
20002a10:	2301      	movs	r3, #1
20002a12:	930b      	str	r3, [sp, #44]	@ 0x2c
20002a14:	e7ab      	b.n	2000296e <_ftoa+0x86>
20002a16:	f104 0350 	add.w	r3, r4, #80	@ 0x50
20002a1a:	446b      	add	r3, sp
20002a1c:	2230      	movs	r2, #48	@ 0x30
20002a1e:	f803 2c20 	strb.w	r2, [r3, #-32]
20002a22:	3d01      	subs	r5, #1
20002a24:	3401      	adds	r4, #1
20002a26:	2c1f      	cmp	r4, #31
20002a28:	d801      	bhi.n	20002a2e <_ftoa+0x146>
20002a2a:	2d09      	cmp	r5, #9
20002a2c:	d8f3      	bhi.n	20002a16 <_ftoa+0x12e>
20002a2e:	4640      	mov	r0, r8
20002a30:	4649      	mov	r1, r9
20002a32:	f7ff fb27 	bl	20002084 <__wrap___aeabi_d2iz>
20002a36:	4606      	mov	r6, r0
20002a38:	f7ff fb00 	bl	2000203c <__wrap___aeabi_i2d>
20002a3c:	4602      	mov	r2, r0
20002a3e:	460b      	mov	r3, r1
20002a40:	4640      	mov	r0, r8
20002a42:	4649      	mov	r1, r9
20002a44:	f7ff fa72 	bl	20001f2c <__wrap___aeabi_dsub>
20002a48:	4b6e      	ldr	r3, [pc, #440]	@ (20002c04 <_ftoa+0x31c>)
20002a4a:	eb03 03c5 	add.w	r3, r3, r5, lsl #3
20002a4e:	ed93 8b00 	vldr	d8, [r3]
20002a52:	ec53 2b18 	vmov	r2, r3, d8
20002a56:	f7ff fa7d 	bl	20001f54 <__wrap___aeabi_dmul>
20002a5a:	4602      	mov	r2, r0
20002a5c:	460b      	mov	r3, r1
20002a5e:	e9cd 2308 	strd	r2, r3, [sp, #32]
20002a62:	f7ff fb21 	bl	200020a8 <__wrap___aeabi_d2uiz>
20002a66:	4607      	mov	r7, r0
20002a68:	f7ff fafa 	bl	20002060 <__wrap___aeabi_ui2d>
20002a6c:	4602      	mov	r2, r0
20002a6e:	460b      	mov	r3, r1
20002a70:	e9dd 0108 	ldrd	r0, r1, [sp, #32]
20002a74:	f7ff fa5a 	bl	20001f2c <__wrap___aeabi_dsub>
20002a78:	4602      	mov	r2, r0
20002a7a:	460b      	mov	r3, r1
20002a7c:	e9cd 2308 	strd	r2, r3, [sp, #32]
20002a80:	2200      	movs	r2, #0
20002a82:	4b61      	ldr	r3, [pc, #388]	@ (20002c08 <_ftoa+0x320>)
20002a84:	f7ff fb70 	bl	20002168 <__wrap___aeabi_dcmpgt>
20002a88:	b368      	cbz	r0, 20002ae6 <_ftoa+0x1fe>
20002a8a:	3701      	adds	r7, #1
20002a8c:	4638      	mov	r0, r7
20002a8e:	f7ff fae7 	bl	20002060 <__wrap___aeabi_ui2d>
20002a92:	4602      	mov	r2, r0
20002a94:	460b      	mov	r3, r1
20002a96:	ec51 0b18 	vmov	r0, r1, d8
20002a9a:	f7ff fb3d 	bl	20002118 <__wrap___aeabi_dcmple>
20002a9e:	b108      	cbz	r0, 20002aa4 <_ftoa+0x1bc>
20002aa0:	3601      	adds	r6, #1
20002aa2:	2700      	movs	r7, #0
20002aa4:	bb6d      	cbnz	r5, 20002b02 <_ftoa+0x21a>
20002aa6:	4630      	mov	r0, r6
20002aa8:	f7ff fac8 	bl	2000203c <__wrap___aeabi_i2d>
20002aac:	4602      	mov	r2, r0
20002aae:	460b      	mov	r3, r1
20002ab0:	4640      	mov	r0, r8
20002ab2:	4649      	mov	r1, r9
20002ab4:	f7ff fa3a 	bl	20001f2c <__wrap___aeabi_dsub>
20002ab8:	4607      	mov	r7, r0
20002aba:	4688      	mov	r8, r1
20002abc:	2200      	movs	r2, #0
20002abe:	4b52      	ldr	r3, [pc, #328]	@ (20002c08 <_ftoa+0x320>)
20002ac0:	f7ff fb16 	bl	200020f0 <__wrap___aeabi_dcmplt>
20002ac4:	2800      	cmp	r0, #0
20002ac6:	d14c      	bne.n	20002b62 <_ftoa+0x27a>
20002ac8:	2200      	movs	r2, #0
20002aca:	4b4f      	ldr	r3, [pc, #316]	@ (20002c08 <_ftoa+0x320>)
20002acc:	4638      	mov	r0, r7
20002ace:	4641      	mov	r1, r8
20002ad0:	f7ff fb4a 	bl	20002168 <__wrap___aeabi_dcmpgt>
20002ad4:	2800      	cmp	r0, #0
20002ad6:	d144      	bne.n	20002b62 <_ftoa+0x27a>
20002ad8:	f016 0f01 	tst.w	r6, #1
20002adc:	d041      	beq.n	20002b62 <_ftoa+0x27a>
20002ade:	3601      	adds	r6, #1
20002ae0:	e03f      	b.n	20002b62 <_ftoa+0x27a>
20002ae2:	2506      	movs	r5, #6
20002ae4:	e748      	b.n	20002978 <_ftoa+0x90>
20002ae6:	2200      	movs	r2, #0
20002ae8:	4b47      	ldr	r3, [pc, #284]	@ (20002c08 <_ftoa+0x320>)
20002aea:	e9dd 0108 	ldrd	r0, r1, [sp, #32]
20002aee:	f7ff faff 	bl	200020f0 <__wrap___aeabi_dcmplt>
20002af2:	2800      	cmp	r0, #0
20002af4:	d1d6      	bne.n	20002aa4 <_ftoa+0x1bc>
20002af6:	b117      	cbz	r7, 20002afe <_ftoa+0x216>
20002af8:	f017 0f01 	tst.w	r7, #1
20002afc:	d0d2      	beq.n	20002aa4 <_ftoa+0x1bc>
20002afe:	3701      	adds	r7, #1
20002b00:	e7d0      	b.n	20002aa4 <_ftoa+0x1bc>
20002b02:	2c1f      	cmp	r4, #31
20002b04:	d817      	bhi.n	20002b36 <_ftoa+0x24e>
20002b06:	3d01      	subs	r5, #1
20002b08:	4b40      	ldr	r3, [pc, #256]	@ (20002c0c <_ftoa+0x324>)
20002b0a:	fba3 2307 	umull	r2, r3, r3, r7
20002b0e:	08db      	lsrs	r3, r3, #3
20002b10:	4619      	mov	r1, r3
20002b12:	eb03 0383 	add.w	r3, r3, r3, lsl #2
20002b16:	eba7 0343 	sub.w	r3, r7, r3, lsl #1
20002b1a:	1c62      	adds	r2, r4, #1
20002b1c:	3330      	adds	r3, #48	@ 0x30
20002b1e:	f104 0050 	add.w	r0, r4, #80	@ 0x50
20002b22:	eb0d 0400 	add.w	r4, sp, r0
20002b26:	f804 3c20 	strb.w	r3, [r4, #-32]
20002b2a:	2f09      	cmp	r7, #9
20002b2c:	d902      	bls.n	20002b34 <_ftoa+0x24c>
20002b2e:	460f      	mov	r7, r1
20002b30:	4614      	mov	r4, r2
20002b32:	e7e6      	b.n	20002b02 <_ftoa+0x21a>
20002b34:	4614      	mov	r4, r2
20002b36:	2c1f      	cmp	r4, #31
20002b38:	d80a      	bhi.n	20002b50 <_ftoa+0x268>
20002b3a:	1e6b      	subs	r3, r5, #1
20002b3c:	b145      	cbz	r5, 20002b50 <_ftoa+0x268>
20002b3e:	f104 0250 	add.w	r2, r4, #80	@ 0x50
20002b42:	446a      	add	r2, sp
20002b44:	2130      	movs	r1, #48	@ 0x30
20002b46:	f802 1c20 	strb.w	r1, [r2, #-32]
20002b4a:	461d      	mov	r5, r3
20002b4c:	3401      	adds	r4, #1
20002b4e:	e7f2      	b.n	20002b36 <_ftoa+0x24e>
20002b50:	2c1f      	cmp	r4, #31
20002b52:	d806      	bhi.n	20002b62 <_ftoa+0x27a>
20002b54:	f104 0350 	add.w	r3, r4, #80	@ 0x50
20002b58:	446b      	add	r3, sp
20002b5a:	222e      	movs	r2, #46	@ 0x2e
20002b5c:	f803 2c20 	strb.w	r2, [r3, #-32]
20002b60:	3401      	adds	r4, #1
20002b62:	2c1f      	cmp	r4, #31
20002b64:	d817      	bhi.n	20002b96 <_ftoa+0x2ae>
20002b66:	4a2a      	ldr	r2, [pc, #168]	@ (20002c10 <_ftoa+0x328>)
20002b68:	fb82 3206 	smull	r3, r2, r2, r6
20002b6c:	17f3      	asrs	r3, r6, #31
20002b6e:	ebc3 03a2 	rsb	r3, r3, r2, asr #2
20002b72:	461a      	mov	r2, r3
20002b74:	eb03 0383 	add.w	r3, r3, r3, lsl #2
20002b78:	eba6 0343 	sub.w	r3, r6, r3, lsl #1
20002b7c:	1c61      	adds	r1, r4, #1
20002b7e:	3330      	adds	r3, #48	@ 0x30
20002b80:	f104 0050 	add.w	r0, r4, #80	@ 0x50
20002b84:	eb0d 0400 	add.w	r4, sp, r0
20002b88:	f804 3c20 	strb.w	r3, [r4, #-32]
20002b8c:	4616      	mov	r6, r2
20002b8e:	b10a      	cbz	r2, 20002b94 <_ftoa+0x2ac>
20002b90:	460c      	mov	r4, r1
20002b92:	e7e6      	b.n	20002b62 <_ftoa+0x27a>
20002b94:	460c      	mov	r4, r1
20002b96:	9b24      	ldr	r3, [sp, #144]	@ 0x90
20002b98:	f003 0303 	and.w	r3, r3, #3
20002b9c:	2b01      	cmp	r3, #1
20002b9e:	d039      	beq.n	20002c14 <_ftoa+0x32c>
20002ba0:	2c1f      	cmp	r4, #31
20002ba2:	d809      	bhi.n	20002bb8 <_ftoa+0x2d0>
20002ba4:	9b0b      	ldr	r3, [sp, #44]	@ 0x2c
20002ba6:	2b00      	cmp	r3, #0
20002ba8:	d051      	beq.n	20002c4e <_ftoa+0x366>
20002baa:	f104 0350 	add.w	r3, r4, #80	@ 0x50
20002bae:	446b      	add	r3, sp
20002bb0:	222d      	movs	r2, #45	@ 0x2d
20002bb2:	f803 2c20 	strb.w	r2, [r3, #-32]
20002bb6:	3401      	adds	r4, #1
20002bb8:	9b24      	ldr	r3, [sp, #144]	@ 0x90
20002bba:	9303      	str	r3, [sp, #12]
20002bbc:	9b23      	ldr	r3, [sp, #140]	@ 0x8c
20002bbe:	9302      	str	r3, [sp, #8]
20002bc0:	9401      	str	r4, [sp, #4]
20002bc2:	ab0c      	add	r3, sp, #48	@ 0x30
20002bc4:	9300      	str	r3, [sp, #0]
20002bc6:	465b      	mov	r3, fp
20002bc8:	4652      	mov	r2, sl
20002bca:	990a      	ldr	r1, [sp, #40]	@ 0x28
20002bcc:	9807      	ldr	r0, [sp, #28]
20002bce:	f7ff faf6 	bl	200021be <_out_rev>
20002bd2:	b015      	add	sp, #84	@ 0x54
20002bd4:	ecbd 8b02 	vpop	{d8}
20002bd8:	e8bd 8ff0 	ldmia.w	sp!, {r4, r5, r6, r7, r8, r9, sl, fp, pc}
20002bdc:	f3af 8000 	nop.w
20002be0:	00000000 	.word	0x00000000
20002be4:	41cdcd65 	.word	0x41cdcd65
20002be8:	00000000 	.word	0x00000000
20002bec:	c1cdcd65 	.word	0xc1cdcd65
20002bf0:	7fefffff 	.word	0x7fefffff
20002bf4:	200054c8 	.word	0x200054c8
20002bf8:	200054cc 	.word	0x200054cc
20002bfc:	200054bc 	.word	0x200054bc
20002c00:	200054c4 	.word	0x200054c4
20002c04:	20005968 	.word	0x20005968
20002c08:	3fe00000 	.word	0x3fe00000
20002c0c:	cccccccd 	.word	0xcccccccd
20002c10:	66666667 	.word	0x66666667
20002c14:	9b23      	ldr	r3, [sp, #140]	@ 0x8c
20002c16:	b1b3      	cbz	r3, 20002c46 <_ftoa+0x35e>
20002c18:	9b0b      	ldr	r3, [sp, #44]	@ 0x2c
20002c1a:	b91b      	cbnz	r3, 20002c24 <_ftoa+0x33c>
20002c1c:	9b24      	ldr	r3, [sp, #144]	@ 0x90
20002c1e:	f013 0f0c 	tst.w	r3, #12
20002c22:	d012      	beq.n	20002c4a <_ftoa+0x362>
20002c24:	9b23      	ldr	r3, [sp, #140]	@ 0x8c
20002c26:	3b01      	subs	r3, #1
20002c28:	9323      	str	r3, [sp, #140]	@ 0x8c
20002c2a:	4619      	mov	r1, r3
20002c2c:	e006      	b.n	20002c3c <_ftoa+0x354>
20002c2e:	f104 0350 	add.w	r3, r4, #80	@ 0x50
20002c32:	446b      	add	r3, sp
20002c34:	2230      	movs	r2, #48	@ 0x30
20002c36:	f803 2c20 	strb.w	r2, [r3, #-32]
20002c3a:	3401      	adds	r4, #1
20002c3c:	428c      	cmp	r4, r1
20002c3e:	d2af      	bcs.n	20002ba0 <_ftoa+0x2b8>
20002c40:	2c1f      	cmp	r4, #31
20002c42:	d9f4      	bls.n	20002c2e <_ftoa+0x346>
20002c44:	e7ac      	b.n	20002ba0 <_ftoa+0x2b8>
20002c46:	9923      	ldr	r1, [sp, #140]	@ 0x8c
20002c48:	e7f8      	b.n	20002c3c <_ftoa+0x354>
20002c4a:	9923      	ldr	r1, [sp, #140]	@ 0x8c
20002c4c:	e7f6      	b.n	20002c3c <_ftoa+0x354>
20002c4e:	9b24      	ldr	r3, [sp, #144]	@ 0x90
20002c50:	f013 0f04 	tst.w	r3, #4
20002c54:	d007      	beq.n	20002c66 <_ftoa+0x37e>
20002c56:	f104 0350 	add.w	r3, r4, #80	@ 0x50
20002c5a:	446b      	add	r3, sp
20002c5c:	222b      	movs	r2, #43	@ 0x2b
20002c5e:	f803 2c20 	strb.w	r2, [r3, #-32]
20002c62:	3401      	adds	r4, #1
20002c64:	e7a8      	b.n	20002bb8 <_ftoa+0x2d0>
20002c66:	9b24      	ldr	r3, [sp, #144]	@ 0x90
20002c68:	f013 0f08 	tst.w	r3, #8
20002c6c:	d0a4      	beq.n	20002bb8 <_ftoa+0x2d0>
20002c6e:	f104 0350 	add.w	r3, r4, #80	@ 0x50
20002c72:	446b      	add	r3, sp
20002c74:	2220      	movs	r2, #32
20002c76:	f803 2c20 	strb.w	r2, [r3, #-32]
20002c7a:	3401      	adds	r4, #1
20002c7c:	e79c      	b.n	20002bb8 <_ftoa+0x2d0>
20002c7e:	bf00      	nop

20002c80 <_vsnprintf>:
20002c80:	e92d 4ff0 	stmdb	sp!, {r4, r5, r6, r7, r8, r9, sl, fp, lr}
20002c84:	b08f      	sub	sp, #60	@ 0x3c
20002c86:	4680      	mov	r8, r0
20002c88:	4617      	mov	r7, r2
20002c8a:	930d      	str	r3, [sp, #52]	@ 0x34
20002c8c:	4689      	mov	r9, r1
20002c8e:	2900      	cmp	r1, #0
20002c90:	f000 834f 	beq.w	20003332 <_vsnprintf+0x6b2>
20002c94:	2500      	movs	r5, #0
20002c96:	e008      	b.n	20002caa <_vsnprintf+0x2a>
20002c98:	1c6c      	adds	r4, r5, #1
20002c9a:	463b      	mov	r3, r7
20002c9c:	462a      	mov	r2, r5
20002c9e:	4649      	mov	r1, r9
20002ca0:	47c0      	blx	r8
20002ca2:	9b0d      	ldr	r3, [sp, #52]	@ 0x34
20002ca4:	3301      	adds	r3, #1
20002ca6:	930d      	str	r3, [sp, #52]	@ 0x34
20002ca8:	4625      	mov	r5, r4
20002caa:	9b0d      	ldr	r3, [sp, #52]	@ 0x34
20002cac:	7818      	ldrb	r0, [r3, #0]
20002cae:	2800      	cmp	r0, #0
20002cb0:	f000 8342 	beq.w	20003338 <_vsnprintf+0x6b8>
20002cb4:	2825      	cmp	r0, #37	@ 0x25
20002cb6:	d1ef      	bne.n	20002c98 <_vsnprintf+0x18>
20002cb8:	3301      	adds	r3, #1
20002cba:	930d      	str	r3, [sp, #52]	@ 0x34
20002cbc:	2600      	movs	r6, #0
20002cbe:	e01f      	b.n	20002d00 <_vsnprintf+0x80>
20002cc0:	f046 0601 	orr.w	r6, r6, #1
20002cc4:	3201      	adds	r2, #1
20002cc6:	920d      	str	r2, [sp, #52]	@ 0x34
20002cc8:	2301      	movs	r3, #1
20002cca:	e018      	b.n	20002cfe <_vsnprintf+0x7e>
20002ccc:	f046 0602 	orr.w	r6, r6, #2
20002cd0:	3201      	adds	r2, #1
20002cd2:	920d      	str	r2, [sp, #52]	@ 0x34
20002cd4:	2301      	movs	r3, #1
20002cd6:	e012      	b.n	20002cfe <_vsnprintf+0x7e>
20002cd8:	f046 0604 	orr.w	r6, r6, #4
20002cdc:	3201      	adds	r2, #1
20002cde:	920d      	str	r2, [sp, #52]	@ 0x34
20002ce0:	2301      	movs	r3, #1
20002ce2:	e00c      	b.n	20002cfe <_vsnprintf+0x7e>
20002ce4:	f046 0608 	orr.w	r6, r6, #8
20002ce8:	3201      	adds	r2, #1
20002cea:	920d      	str	r2, [sp, #52]	@ 0x34
20002cec:	2301      	movs	r3, #1
20002cee:	e006      	b.n	20002cfe <_vsnprintf+0x7e>
20002cf0:	f046 0610 	orr.w	r6, r6, #16
20002cf4:	3201      	adds	r2, #1
20002cf6:	920d      	str	r2, [sp, #52]	@ 0x34
20002cf8:	2301      	movs	r3, #1
20002cfa:	e000      	b.n	20002cfe <_vsnprintf+0x7e>
20002cfc:	2300      	movs	r3, #0
20002cfe:	b34b      	cbz	r3, 20002d54 <_vsnprintf+0xd4>
20002d00:	9a0d      	ldr	r2, [sp, #52]	@ 0x34
20002d02:	7813      	ldrb	r3, [r2, #0]
20002d04:	3b20      	subs	r3, #32
20002d06:	2b10      	cmp	r3, #16
20002d08:	d8f8      	bhi.n	20002cfc <_vsnprintf+0x7c>
20002d0a:	a101      	add	r1, pc, #4	@ (adr r1, 20002d10 <_vsnprintf+0x90>)
20002d0c:	f851 f023 	ldr.w	pc, [r1, r3, lsl #2]
20002d10:	20002ce5 	.word	0x20002ce5
20002d14:	20002cfd 	.word	0x20002cfd
20002d18:	20002cfd 	.word	0x20002cfd
20002d1c:	20002cf1 	.word	0x20002cf1
20002d20:	20002cfd 	.word	0x20002cfd
20002d24:	20002cfd 	.word	0x20002cfd
20002d28:	20002cfd 	.word	0x20002cfd
20002d2c:	20002cfd 	.word	0x20002cfd
20002d30:	20002cfd 	.word	0x20002cfd
20002d34:	20002cfd 	.word	0x20002cfd
20002d38:	20002cfd 	.word	0x20002cfd
20002d3c:	20002cd9 	.word	0x20002cd9
20002d40:	20002cfd 	.word	0x20002cfd
20002d44:	20002ccd 	.word	0x20002ccd
20002d48:	20002cfd 	.word	0x20002cfd
20002d4c:	20002cfd 	.word	0x20002cfd
20002d50:	20002cc1 	.word	0x20002cc1
20002d54:	930a      	str	r3, [sp, #40]	@ 0x28
20002d56:	9b0d      	ldr	r3, [sp, #52]	@ 0x34
20002d58:	781a      	ldrb	r2, [r3, #0]
20002d5a:	f1a2 0330 	sub.w	r3, r2, #48	@ 0x30
20002d5e:	b2db      	uxtb	r3, r3
20002d60:	2b09      	cmp	r3, #9
20002d62:	d918      	bls.n	20002d96 <_vsnprintf+0x116>
20002d64:	2a2a      	cmp	r2, #42	@ 0x2a
20002d66:	d01b      	beq.n	20002da0 <_vsnprintf+0x120>
20002d68:	9b0a      	ldr	r3, [sp, #40]	@ 0x28
20002d6a:	930b      	str	r3, [sp, #44]	@ 0x2c
20002d6c:	9b0d      	ldr	r3, [sp, #52]	@ 0x34
20002d6e:	781a      	ldrb	r2, [r3, #0]
20002d70:	2a2e      	cmp	r2, #46	@ 0x2e
20002d72:	d025      	beq.n	20002dc0 <_vsnprintf+0x140>
20002d74:	9a0d      	ldr	r2, [sp, #52]	@ 0x34
20002d76:	7813      	ldrb	r3, [r2, #0]
20002d78:	3b68      	subs	r3, #104	@ 0x68
20002d7a:	2b12      	cmp	r3, #18
20002d7c:	d85c      	bhi.n	20002e38 <_vsnprintf+0x1b8>
20002d7e:	e8df f003 	tbb	[pc, r3]
20002d82:	5b49      	.short	0x5b49
20002d84:	5b3b5bac 	.word	0x5b3b5bac
20002d88:	5b5b5b5b 	.word	0x5b5b5b5b
20002d8c:	5b575b5b 	.word	0x5b575b5b
20002d90:	5b5b5b5b 	.word	0x5b5b5b5b
20002d94:	b1          	.byte	0xb1
20002d95:	00          	.byte	0x00
20002d96:	a80d      	add	r0, sp, #52	@ 0x34
20002d98:	f7ff f9fe 	bl	20002198 <_atoi>
20002d9c:	900b      	str	r0, [sp, #44]	@ 0x2c
20002d9e:	e7e5      	b.n	20002d6c <_vsnprintf+0xec>
20002da0:	9b18      	ldr	r3, [sp, #96]	@ 0x60
20002da2:	1d1a      	adds	r2, r3, #4
20002da4:	9218      	str	r2, [sp, #96]	@ 0x60
20002da6:	681b      	ldr	r3, [r3, #0]
20002da8:	2b00      	cmp	r3, #0
20002daa:	db04      	blt.n	20002db6 <_vsnprintf+0x136>
20002dac:	930b      	str	r3, [sp, #44]	@ 0x2c
20002dae:	9b0d      	ldr	r3, [sp, #52]	@ 0x34
20002db0:	3301      	adds	r3, #1
20002db2:	930d      	str	r3, [sp, #52]	@ 0x34
20002db4:	e7da      	b.n	20002d6c <_vsnprintf+0xec>
20002db6:	f046 0602 	orr.w	r6, r6, #2
20002dba:	425b      	negs	r3, r3
20002dbc:	930b      	str	r3, [sp, #44]	@ 0x2c
20002dbe:	e7f6      	b.n	20002dae <_vsnprintf+0x12e>
20002dc0:	f446 6680 	orr.w	r6, r6, #1024	@ 0x400
20002dc4:	1c5a      	adds	r2, r3, #1
20002dc6:	920d      	str	r2, [sp, #52]	@ 0x34
20002dc8:	785a      	ldrb	r2, [r3, #1]
20002dca:	f1a2 0330 	sub.w	r3, r2, #48	@ 0x30
20002dce:	b2db      	uxtb	r3, r3
20002dd0:	2b09      	cmp	r3, #9
20002dd2:	d90c      	bls.n	20002dee <_vsnprintf+0x16e>
20002dd4:	2a2a      	cmp	r2, #42	@ 0x2a
20002dd6:	d1cd      	bne.n	20002d74 <_vsnprintf+0xf4>
20002dd8:	9b18      	ldr	r3, [sp, #96]	@ 0x60
20002dda:	1d1a      	adds	r2, r3, #4
20002ddc:	9218      	str	r2, [sp, #96]	@ 0x60
20002dde:	681c      	ldr	r4, [r3, #0]
20002de0:	ea24 73e4 	bic.w	r3, r4, r4, asr #31
20002de4:	930a      	str	r3, [sp, #40]	@ 0x28
20002de6:	9b0d      	ldr	r3, [sp, #52]	@ 0x34
20002de8:	3301      	adds	r3, #1
20002dea:	930d      	str	r3, [sp, #52]	@ 0x34
20002dec:	e7c2      	b.n	20002d74 <_vsnprintf+0xf4>
20002dee:	a80d      	add	r0, sp, #52	@ 0x34
20002df0:	f7ff f9d2 	bl	20002198 <_atoi>
20002df4:	900a      	str	r0, [sp, #40]	@ 0x28
20002df6:	e7bd      	b.n	20002d74 <_vsnprintf+0xf4>
20002df8:	f446 7180 	orr.w	r1, r6, #256	@ 0x100
20002dfc:	1c53      	adds	r3, r2, #1
20002dfe:	930d      	str	r3, [sp, #52]	@ 0x34
20002e00:	7853      	ldrb	r3, [r2, #1]
20002e02:	2b6c      	cmp	r3, #108	@ 0x6c
20002e04:	d001      	beq.n	20002e0a <_vsnprintf+0x18a>
20002e06:	460e      	mov	r6, r1
20002e08:	e016      	b.n	20002e38 <_vsnprintf+0x1b8>
20002e0a:	f446 7640 	orr.w	r6, r6, #768	@ 0x300
20002e0e:	3202      	adds	r2, #2
20002e10:	920d      	str	r2, [sp, #52]	@ 0x34
20002e12:	e011      	b.n	20002e38 <_vsnprintf+0x1b8>
20002e14:	f046 0180 	orr.w	r1, r6, #128	@ 0x80
20002e18:	1c53      	adds	r3, r2, #1
20002e1a:	930d      	str	r3, [sp, #52]	@ 0x34
20002e1c:	7853      	ldrb	r3, [r2, #1]
20002e1e:	2b68      	cmp	r3, #104	@ 0x68
20002e20:	d001      	beq.n	20002e26 <_vsnprintf+0x1a6>
20002e22:	460e      	mov	r6, r1
20002e24:	e008      	b.n	20002e38 <_vsnprintf+0x1b8>
20002e26:	f046 06c0 	orr.w	r6, r6, #192	@ 0xc0
20002e2a:	3202      	adds	r2, #2
20002e2c:	920d      	str	r2, [sp, #52]	@ 0x34
20002e2e:	e003      	b.n	20002e38 <_vsnprintf+0x1b8>
20002e30:	f446 7680 	orr.w	r6, r6, #256	@ 0x100
20002e34:	3201      	adds	r2, #1
20002e36:	920d      	str	r2, [sp, #52]	@ 0x34
20002e38:	9b0d      	ldr	r3, [sp, #52]	@ 0x34
20002e3a:	7818      	ldrb	r0, [r3, #0]
20002e3c:	2867      	cmp	r0, #103	@ 0x67
20002e3e:	d856      	bhi.n	20002eee <_vsnprintf+0x26e>
20002e40:	2825      	cmp	r0, #37	@ 0x25
20002e42:	f0c0 826c 	bcc.w	2000331e <_vsnprintf+0x69e>
20002e46:	f1a0 0325 	sub.w	r3, r0, #37	@ 0x25
20002e4a:	2b42      	cmp	r3, #66	@ 0x42
20002e4c:	f200 8267 	bhi.w	2000331e <_vsnprintf+0x69e>
20002e50:	e8df f013 	tbh	[pc, r3, lsl #1]
20002e54:	0265025a 	.word	0x0265025a
20002e58:	02650265 	.word	0x02650265
20002e5c:	02650265 	.word	0x02650265
20002e60:	02650265 	.word	0x02650265
20002e64:	02650265 	.word	0x02650265
20002e68:	02650265 	.word	0x02650265
20002e6c:	02650265 	.word	0x02650265
20002e70:	02650265 	.word	0x02650265
20002e74:	02650265 	.word	0x02650265
20002e78:	02650265 	.word	0x02650265
20002e7c:	02650265 	.word	0x02650265
20002e80:	02650265 	.word	0x02650265
20002e84:	02650265 	.word	0x02650265
20002e88:	02650265 	.word	0x02650265
20002e8c:	02650265 	.word	0x02650265
20002e90:	02650265 	.word	0x02650265
20002e94:	01680188 	.word	0x01680188
20002e98:	02650188 	.word	0x02650188
20002e9c:	02650265 	.word	0x02650265
20002ea0:	02650265 	.word	0x02650265
20002ea4:	02650265 	.word	0x02650265
20002ea8:	02650265 	.word	0x02650265
20002eac:	02650265 	.word	0x02650265
20002eb0:	02650265 	.word	0x02650265
20002eb4:	02650265 	.word	0x02650265
20002eb8:	00710265 	.word	0x00710265
20002ebc:	02650265 	.word	0x02650265
20002ec0:	02650265 	.word	0x02650265
20002ec4:	02650265 	.word	0x02650265
20002ec8:	02650265 	.word	0x02650265
20002ecc:	00710265 	.word	0x00710265
20002ed0:	007101af 	.word	0x007101af
20002ed4:	01680188 	.word	0x01680188
20002ed8:	0188      	.short	0x0188
20002eda:	f446 7600 	orr.w	r6, r6, #512	@ 0x200
20002ede:	3201      	adds	r2, #1
20002ee0:	920d      	str	r2, [sp, #52]	@ 0x34
20002ee2:	e7a9      	b.n	20002e38 <_vsnprintf+0x1b8>
20002ee4:	f446 7680 	orr.w	r6, r6, #256	@ 0x100
20002ee8:	3201      	adds	r2, #1
20002eea:	920d      	str	r2, [sp, #52]	@ 0x34
20002eec:	e7a4      	b.n	20002e38 <_vsnprintf+0x1b8>
20002eee:	2878      	cmp	r0, #120	@ 0x78
20002ef0:	f200 8215 	bhi.w	2000331e <_vsnprintf+0x69e>
20002ef4:	2869      	cmp	r0, #105	@ 0x69
20002ef6:	f0c0 8212 	bcc.w	2000331e <_vsnprintf+0x69e>
20002efa:	f1a0 0269 	sub.w	r2, r0, #105	@ 0x69
20002efe:	b2d2      	uxtb	r2, r2
20002f00:	2301      	movs	r3, #1
20002f02:	4093      	lsls	r3, r2
20002f04:	f249 0241 	movw	r2, #36929	@ 0x9041
20002f08:	4213      	tst	r3, r2
20002f0a:	d114      	bne.n	20002f36 <_vsnprintf+0x2b6>
20002f0c:	f013 0f80 	tst.w	r3, #128	@ 0x80
20002f10:	f040 81df 	bne.w	200032d2 <_vsnprintf+0x652>
20002f14:	f413 6f80 	tst.w	r3, #1024	@ 0x400
20002f18:	f000 8201 	beq.w	2000331e <_vsnprintf+0x69e>
20002f1c:	9b18      	ldr	r3, [sp, #96]	@ 0x60
20002f1e:	1d1a      	adds	r2, r3, #4
20002f20:	9218      	str	r2, [sp, #96]	@ 0x60
20002f22:	f8d3 a000 	ldr.w	sl, [r3]
20002f26:	9b0a      	ldr	r3, [sp, #40]	@ 0x28
20002f28:	2b00      	cmp	r3, #0
20002f2a:	f040 8190 	bne.w	2000324e <_vsnprintf+0x5ce>
20002f2e:	f04f 32ff 	mov.w	r2, #4294967295
20002f32:	4653      	mov	r3, sl
20002f34:	e174      	b.n	20003220 <_vsnprintf+0x5a0>
20002f36:	286f      	cmp	r0, #111	@ 0x6f
20002f38:	d03d      	beq.n	20002fb6 <_vsnprintf+0x336>
20002f3a:	d805      	bhi.n	20002f48 <_vsnprintf+0x2c8>
20002f3c:	2858      	cmp	r0, #88	@ 0x58
20002f3e:	d03c      	beq.n	20002fba <_vsnprintf+0x33a>
20002f40:	2862      	cmp	r0, #98	@ 0x62
20002f42:	d103      	bne.n	20002f4c <_vsnprintf+0x2cc>
20002f44:	2302      	movs	r3, #2
20002f46:	e004      	b.n	20002f52 <_vsnprintf+0x2d2>
20002f48:	2878      	cmp	r0, #120	@ 0x78
20002f4a:	d038      	beq.n	20002fbe <_vsnprintf+0x33e>
20002f4c:	f026 0610 	bic.w	r6, r6, #16
20002f50:	230a      	movs	r3, #10
20002f52:	2858      	cmp	r0, #88	@ 0x58
20002f54:	d035      	beq.n	20002fc2 <_vsnprintf+0x342>
20002f56:	2869      	cmp	r0, #105	@ 0x69
20002f58:	d003      	beq.n	20002f62 <_vsnprintf+0x2e2>
20002f5a:	2864      	cmp	r0, #100	@ 0x64
20002f5c:	d001      	beq.n	20002f62 <_vsnprintf+0x2e2>
20002f5e:	f026 060c 	bic.w	r6, r6, #12
20002f62:	f416 6f80 	tst.w	r6, #1024	@ 0x400
20002f66:	d001      	beq.n	20002f6c <_vsnprintf+0x2ec>
20002f68:	f026 0601 	bic.w	r6, r6, #1
20002f6c:	2869      	cmp	r0, #105	@ 0x69
20002f6e:	d02b      	beq.n	20002fc8 <_vsnprintf+0x348>
20002f70:	2864      	cmp	r0, #100	@ 0x64
20002f72:	d029      	beq.n	20002fc8 <_vsnprintf+0x348>
20002f74:	f416 7f00 	tst.w	r6, #512	@ 0x200
20002f78:	f040 8096 	bne.w	200030a8 <_vsnprintf+0x428>
20002f7c:	f416 7f80 	tst.w	r6, #256	@ 0x100
20002f80:	f040 80ae 	bne.w	200030e0 <_vsnprintf+0x460>
20002f84:	f016 0f40 	tst.w	r6, #64	@ 0x40
20002f88:	f000 80bf 	beq.w	2000310a <_vsnprintf+0x48a>
20002f8c:	9a18      	ldr	r2, [sp, #96]	@ 0x60
20002f8e:	1d11      	adds	r1, r2, #4
20002f90:	9118      	str	r1, [sp, #96]	@ 0x60
20002f92:	7812      	ldrb	r2, [r2, #0]
20002f94:	9605      	str	r6, [sp, #20]
20002f96:	990b      	ldr	r1, [sp, #44]	@ 0x2c
20002f98:	9104      	str	r1, [sp, #16]
20002f9a:	990a      	ldr	r1, [sp, #40]	@ 0x28
20002f9c:	9103      	str	r1, [sp, #12]
20002f9e:	9302      	str	r3, [sp, #8]
20002fa0:	2300      	movs	r3, #0
20002fa2:	9301      	str	r3, [sp, #4]
20002fa4:	9200      	str	r2, [sp, #0]
20002fa6:	463b      	mov	r3, r7
20002fa8:	462a      	mov	r2, r5
20002faa:	4649      	mov	r1, r9
20002fac:	4640      	mov	r0, r8
20002fae:	f7ff f9df 	bl	20002370 <_ntoa_long>
20002fb2:	4605      	mov	r5, r0
20002fb4:	e029      	b.n	2000300a <_vsnprintf+0x38a>
20002fb6:	2308      	movs	r3, #8
20002fb8:	e7cb      	b.n	20002f52 <_vsnprintf+0x2d2>
20002fba:	2310      	movs	r3, #16
20002fbc:	e7c9      	b.n	20002f52 <_vsnprintf+0x2d2>
20002fbe:	2310      	movs	r3, #16
20002fc0:	e7c7      	b.n	20002f52 <_vsnprintf+0x2d2>
20002fc2:	f046 0620 	orr.w	r6, r6, #32
20002fc6:	e7c6      	b.n	20002f56 <_vsnprintf+0x2d6>
20002fc8:	f416 7f00 	tst.w	r6, #512	@ 0x200
20002fcc:	d121      	bne.n	20003012 <_vsnprintf+0x392>
20002fce:	f416 7f80 	tst.w	r6, #256	@ 0x100
20002fd2:	d142      	bne.n	2000305a <_vsnprintf+0x3da>
20002fd4:	f016 0f40 	tst.w	r6, #64	@ 0x40
20002fd8:	d058      	beq.n	2000308c <_vsnprintf+0x40c>
20002fda:	9a18      	ldr	r2, [sp, #96]	@ 0x60
20002fdc:	1d11      	adds	r1, r2, #4
20002fde:	9118      	str	r1, [sp, #96]	@ 0x60
20002fe0:	7812      	ldrb	r2, [r2, #0]
20002fe2:	ea82 71e2 	eor.w	r1, r2, r2, asr #31
20002fe6:	eba1 71e2 	sub.w	r1, r1, r2, asr #31
20002fea:	9605      	str	r6, [sp, #20]
20002fec:	980b      	ldr	r0, [sp, #44]	@ 0x2c
20002fee:	9004      	str	r0, [sp, #16]
20002ff0:	980a      	ldr	r0, [sp, #40]	@ 0x28
20002ff2:	9003      	str	r0, [sp, #12]
20002ff4:	9302      	str	r3, [sp, #8]
20002ff6:	0fd2      	lsrs	r2, r2, #31
20002ff8:	9201      	str	r2, [sp, #4]
20002ffa:	9100      	str	r1, [sp, #0]
20002ffc:	463b      	mov	r3, r7
20002ffe:	462a      	mov	r2, r5
20003000:	4649      	mov	r1, r9
20003002:	4640      	mov	r0, r8
20003004:	f7ff f9b4 	bl	20002370 <_ntoa_long>
20003008:	4605      	mov	r5, r0
2000300a:	9b0d      	ldr	r3, [sp, #52]	@ 0x34
2000300c:	3301      	adds	r3, #1
2000300e:	930d      	str	r3, [sp, #52]	@ 0x34
20003010:	e64b      	b.n	20002caa <_vsnprintf+0x2a>
20003012:	9a18      	ldr	r2, [sp, #96]	@ 0x60
20003014:	3207      	adds	r2, #7
20003016:	f022 0207 	bic.w	r2, r2, #7
2000301a:	f102 0108 	add.w	r1, r2, #8
2000301e:	9118      	str	r1, [sp, #96]	@ 0x60
20003020:	6851      	ldr	r1, [r2, #4]
20003022:	6812      	ldr	r2, [r2, #0]
20003024:	4608      	mov	r0, r1
20003026:	2900      	cmp	r1, #0
20003028:	db13      	blt.n	20003052 <_vsnprintf+0x3d2>
2000302a:	9608      	str	r6, [sp, #32]
2000302c:	9c0b      	ldr	r4, [sp, #44]	@ 0x2c
2000302e:	9407      	str	r4, [sp, #28]
20003030:	9c0a      	ldr	r4, [sp, #40]	@ 0x28
20003032:	9406      	str	r4, [sp, #24]
20003034:	9304      	str	r3, [sp, #16]
20003036:	2300      	movs	r3, #0
20003038:	9305      	str	r3, [sp, #20]
2000303a:	0fc9      	lsrs	r1, r1, #31
2000303c:	9102      	str	r1, [sp, #8]
2000303e:	9200      	str	r2, [sp, #0]
20003040:	9001      	str	r0, [sp, #4]
20003042:	463b      	mov	r3, r7
20003044:	462a      	mov	r2, r5
20003046:	4649      	mov	r1, r9
20003048:	4640      	mov	r0, r8
2000304a:	f7ff f9db 	bl	20002404 <_ntoa_long_long>
2000304e:	4605      	mov	r5, r0
20003050:	e7db      	b.n	2000300a <_vsnprintf+0x38a>
20003052:	4252      	negs	r2, r2
20003054:	eb61 0041 	sbc.w	r0, r1, r1, lsl #1
20003058:	e7e7      	b.n	2000302a <_vsnprintf+0x3aa>
2000305a:	9a18      	ldr	r2, [sp, #96]	@ 0x60
2000305c:	1d11      	adds	r1, r2, #4
2000305e:	9118      	str	r1, [sp, #96]	@ 0x60
20003060:	6812      	ldr	r2, [r2, #0]
20003062:	ea82 71e2 	eor.w	r1, r2, r2, asr #31
20003066:	eba1 71e2 	sub.w	r1, r1, r2, asr #31
2000306a:	9605      	str	r6, [sp, #20]
2000306c:	980b      	ldr	r0, [sp, #44]	@ 0x2c
2000306e:	9004      	str	r0, [sp, #16]
20003070:	980a      	ldr	r0, [sp, #40]	@ 0x28
20003072:	9003      	str	r0, [sp, #12]
20003074:	9302      	str	r3, [sp, #8]
20003076:	0fd2      	lsrs	r2, r2, #31
20003078:	9201      	str	r2, [sp, #4]
2000307a:	9100      	str	r1, [sp, #0]
2000307c:	463b      	mov	r3, r7
2000307e:	462a      	mov	r2, r5
20003080:	4649      	mov	r1, r9
20003082:	4640      	mov	r0, r8
20003084:	f7ff f974 	bl	20002370 <_ntoa_long>
20003088:	4605      	mov	r5, r0
2000308a:	e7be      	b.n	2000300a <_vsnprintf+0x38a>
2000308c:	f016 0f80 	tst.w	r6, #128	@ 0x80
20003090:	d005      	beq.n	2000309e <_vsnprintf+0x41e>
20003092:	9a18      	ldr	r2, [sp, #96]	@ 0x60
20003094:	1d11      	adds	r1, r2, #4
20003096:	9118      	str	r1, [sp, #96]	@ 0x60
20003098:	f9b2 2000 	ldrsh.w	r2, [r2]
2000309c:	e7a1      	b.n	20002fe2 <_vsnprintf+0x362>
2000309e:	9a18      	ldr	r2, [sp, #96]	@ 0x60
200030a0:	1d11      	adds	r1, r2, #4
200030a2:	9118      	str	r1, [sp, #96]	@ 0x60
200030a4:	6812      	ldr	r2, [r2, #0]
200030a6:	e79c      	b.n	20002fe2 <_vsnprintf+0x362>
200030a8:	9a18      	ldr	r2, [sp, #96]	@ 0x60
200030aa:	3207      	adds	r2, #7
200030ac:	f022 0207 	bic.w	r2, r2, #7
200030b0:	f102 0108 	add.w	r1, r2, #8
200030b4:	9118      	str	r1, [sp, #96]	@ 0x60
200030b6:	9608      	str	r6, [sp, #32]
200030b8:	990b      	ldr	r1, [sp, #44]	@ 0x2c
200030ba:	9107      	str	r1, [sp, #28]
200030bc:	990a      	ldr	r1, [sp, #40]	@ 0x28
200030be:	9106      	str	r1, [sp, #24]
200030c0:	2100      	movs	r1, #0
200030c2:	9304      	str	r3, [sp, #16]
200030c4:	9105      	str	r1, [sp, #20]
200030c6:	9102      	str	r1, [sp, #8]
200030c8:	e9d2 2300 	ldrd	r2, r3, [r2]
200030cc:	e9cd 2300 	strd	r2, r3, [sp]
200030d0:	463b      	mov	r3, r7
200030d2:	462a      	mov	r2, r5
200030d4:	4649      	mov	r1, r9
200030d6:	4640      	mov	r0, r8
200030d8:	f7ff f994 	bl	20002404 <_ntoa_long_long>
200030dc:	4605      	mov	r5, r0
200030de:	e794      	b.n	2000300a <_vsnprintf+0x38a>
200030e0:	9a18      	ldr	r2, [sp, #96]	@ 0x60
200030e2:	1d11      	adds	r1, r2, #4
200030e4:	9118      	str	r1, [sp, #96]	@ 0x60
200030e6:	9605      	str	r6, [sp, #20]
200030e8:	990b      	ldr	r1, [sp, #44]	@ 0x2c
200030ea:	9104      	str	r1, [sp, #16]
200030ec:	990a      	ldr	r1, [sp, #40]	@ 0x28
200030ee:	9103      	str	r1, [sp, #12]
200030f0:	9302      	str	r3, [sp, #8]
200030f2:	2300      	movs	r3, #0
200030f4:	9301      	str	r3, [sp, #4]
200030f6:	6813      	ldr	r3, [r2, #0]
200030f8:	9300      	str	r3, [sp, #0]
200030fa:	463b      	mov	r3, r7
200030fc:	462a      	mov	r2, r5
200030fe:	4649      	mov	r1, r9
20003100:	4640      	mov	r0, r8
20003102:	f7ff f935 	bl	20002370 <_ntoa_long>
20003106:	4605      	mov	r5, r0
20003108:	e77f      	b.n	2000300a <_vsnprintf+0x38a>
2000310a:	f016 0f80 	tst.w	r6, #128	@ 0x80
2000310e:	d004      	beq.n	2000311a <_vsnprintf+0x49a>
20003110:	9a18      	ldr	r2, [sp, #96]	@ 0x60
20003112:	1d11      	adds	r1, r2, #4
20003114:	9118      	str	r1, [sp, #96]	@ 0x60
20003116:	8812      	ldrh	r2, [r2, #0]
20003118:	e73c      	b.n	20002f94 <_vsnprintf+0x314>
2000311a:	9a18      	ldr	r2, [sp, #96]	@ 0x60
2000311c:	1d11      	adds	r1, r2, #4
2000311e:	9118      	str	r1, [sp, #96]	@ 0x60
20003120:	6812      	ldr	r2, [r2, #0]
20003122:	e737      	b.n	20002f94 <_vsnprintf+0x314>
20003124:	2846      	cmp	r0, #70	@ 0x46
20003126:	d01a      	beq.n	2000315e <_vsnprintf+0x4de>
20003128:	9b18      	ldr	r3, [sp, #96]	@ 0x60
2000312a:	3307      	adds	r3, #7
2000312c:	f023 0307 	bic.w	r3, r3, #7
20003130:	f103 0208 	add.w	r2, r3, #8
20003134:	9218      	str	r2, [sp, #96]	@ 0x60
20003136:	9604      	str	r6, [sp, #16]
20003138:	9a0b      	ldr	r2, [sp, #44]	@ 0x2c
2000313a:	9203      	str	r2, [sp, #12]
2000313c:	9a0a      	ldr	r2, [sp, #40]	@ 0x28
2000313e:	9202      	str	r2, [sp, #8]
20003140:	e9d3 2300 	ldrd	r2, r3, [r3]
20003144:	e9cd 2300 	strd	r2, r3, [sp]
20003148:	463b      	mov	r3, r7
2000314a:	462a      	mov	r2, r5
2000314c:	4649      	mov	r1, r9
2000314e:	4640      	mov	r0, r8
20003150:	f7ff fbca 	bl	200028e8 <_ftoa>
20003154:	4605      	mov	r5, r0
20003156:	9b0d      	ldr	r3, [sp, #52]	@ 0x34
20003158:	3301      	adds	r3, #1
2000315a:	930d      	str	r3, [sp, #52]	@ 0x34
2000315c:	e5a5      	b.n	20002caa <_vsnprintf+0x2a>
2000315e:	f046 0620 	orr.w	r6, r6, #32
20003162:	e7e1      	b.n	20003128 <_vsnprintf+0x4a8>
20003164:	2867      	cmp	r0, #103	@ 0x67
20003166:	d001      	beq.n	2000316c <_vsnprintf+0x4ec>
20003168:	2847      	cmp	r0, #71	@ 0x47
2000316a:	d101      	bne.n	20003170 <_vsnprintf+0x4f0>
2000316c:	f446 6600 	orr.w	r6, r6, #2048	@ 0x800
20003170:	2845      	cmp	r0, #69	@ 0x45
20003172:	d001      	beq.n	20003178 <_vsnprintf+0x4f8>
20003174:	2847      	cmp	r0, #71	@ 0x47
20003176:	d101      	bne.n	2000317c <_vsnprintf+0x4fc>
20003178:	f046 0620 	orr.w	r6, r6, #32
2000317c:	9b18      	ldr	r3, [sp, #96]	@ 0x60
2000317e:	3307      	adds	r3, #7
20003180:	f023 0307 	bic.w	r3, r3, #7
20003184:	f103 0208 	add.w	r2, r3, #8
20003188:	9218      	str	r2, [sp, #96]	@ 0x60
2000318a:	9604      	str	r6, [sp, #16]
2000318c:	9a0b      	ldr	r2, [sp, #44]	@ 0x2c
2000318e:	9203      	str	r2, [sp, #12]
20003190:	9a0a      	ldr	r2, [sp, #40]	@ 0x28
20003192:	9202      	str	r2, [sp, #8]
20003194:	e9d3 2300 	ldrd	r2, r3, [r3]
20003198:	e9cd 2300 	strd	r2, r3, [sp]
2000319c:	463b      	mov	r3, r7
2000319e:	462a      	mov	r2, r5
200031a0:	4649      	mov	r1, r9
200031a2:	4640      	mov	r0, r8
200031a4:	f7ff f990 	bl	200024c8 <_etoa>
200031a8:	4605      	mov	r5, r0
200031aa:	9b0d      	ldr	r3, [sp, #52]	@ 0x34
200031ac:	3301      	adds	r3, #1
200031ae:	930d      	str	r3, [sp, #52]	@ 0x34
200031b0:	e57b      	b.n	20002caa <_vsnprintf+0x2a>
200031b2:	f016 0602 	ands.w	r6, r6, #2
200031b6:	d01c      	beq.n	200031f2 <_vsnprintf+0x572>
200031b8:	2401      	movs	r4, #1
200031ba:	9818      	ldr	r0, [sp, #96]	@ 0x60
200031bc:	1d03      	adds	r3, r0, #4
200031be:	9318      	str	r3, [sp, #96]	@ 0x60
200031c0:	f105 0a01 	add.w	sl, r5, #1
200031c4:	463b      	mov	r3, r7
200031c6:	462a      	mov	r2, r5
200031c8:	4649      	mov	r1, r9
200031ca:	7800      	ldrb	r0, [r0, #0]
200031cc:	47c0      	blx	r8
200031ce:	b9ae      	cbnz	r6, 200031fc <_vsnprintf+0x57c>
200031d0:	9b0d      	ldr	r3, [sp, #52]	@ 0x34
200031d2:	3301      	adds	r3, #1
200031d4:	930d      	str	r3, [sp, #52]	@ 0x34
200031d6:	4655      	mov	r5, sl
200031d8:	e567      	b.n	20002caa <_vsnprintf+0x2a>
200031da:	1c55      	adds	r5, r2, #1
200031dc:	463b      	mov	r3, r7
200031de:	4649      	mov	r1, r9
200031e0:	2020      	movs	r0, #32
200031e2:	47c0      	blx	r8
200031e4:	4623      	mov	r3, r4
200031e6:	462a      	mov	r2, r5
200031e8:	1c5c      	adds	r4, r3, #1
200031ea:	459a      	cmp	sl, r3
200031ec:	d8f5      	bhi.n	200031da <_vsnprintf+0x55a>
200031ee:	4615      	mov	r5, r2
200031f0:	e7e3      	b.n	200031ba <_vsnprintf+0x53a>
200031f2:	2301      	movs	r3, #1
200031f4:	f8dd a02c 	ldr.w	sl, [sp, #44]	@ 0x2c
200031f8:	462a      	mov	r2, r5
200031fa:	e7f5      	b.n	200031e8 <_vsnprintf+0x568>
200031fc:	4652      	mov	r2, sl
200031fe:	f8dd a02c 	ldr.w	sl, [sp, #44]	@ 0x2c
20003202:	e006      	b.n	20003212 <_vsnprintf+0x592>
20003204:	1c56      	adds	r6, r2, #1
20003206:	463b      	mov	r3, r7
20003208:	4649      	mov	r1, r9
2000320a:	2020      	movs	r0, #32
2000320c:	47c0      	blx	r8
2000320e:	462c      	mov	r4, r5
20003210:	4632      	mov	r2, r6
20003212:	1c65      	adds	r5, r4, #1
20003214:	45a2      	cmp	sl, r4
20003216:	d8f5      	bhi.n	20003204 <_vsnprintf+0x584>
20003218:	4692      	mov	sl, r2
2000321a:	e7d9      	b.n	200031d0 <_vsnprintf+0x550>
2000321c:	3301      	adds	r3, #1
2000321e:	460a      	mov	r2, r1
20003220:	7819      	ldrb	r1, [r3, #0]
20003222:	b111      	cbz	r1, 2000322a <_vsnprintf+0x5aa>
20003224:	1e51      	subs	r1, r2, #1
20003226:	2a00      	cmp	r2, #0
20003228:	d1f8      	bne.n	2000321c <_vsnprintf+0x59c>
2000322a:	eba3 030a 	sub.w	r3, r3, sl
2000322e:	f416 6b80 	ands.w	fp, r6, #1024	@ 0x400
20003232:	d003      	beq.n	2000323c <_vsnprintf+0x5bc>
20003234:	9a0a      	ldr	r2, [sp, #40]	@ 0x28
20003236:	4293      	cmp	r3, r2
20003238:	bf28      	it	cs
2000323a:	4613      	movcs	r3, r2
2000323c:	f016 0402 	ands.w	r4, r6, #2
20003240:	d007      	beq.n	20003252 <_vsnprintf+0x5d2>
20003242:	940c      	str	r4, [sp, #48]	@ 0x30
20003244:	9e0a      	ldr	r6, [sp, #40]	@ 0x28
20003246:	462a      	mov	r2, r5
20003248:	465d      	mov	r5, fp
2000324a:	469b      	mov	fp, r3
2000324c:	e023      	b.n	20003296 <_vsnprintf+0x616>
2000324e:	9a0a      	ldr	r2, [sp, #40]	@ 0x28
20003250:	e66f      	b.n	20002f32 <_vsnprintf+0x2b2>
20003252:	f8cd b030 	str.w	fp, [sp, #48]	@ 0x30
20003256:	462a      	mov	r2, r5
20003258:	4625      	mov	r5, r4
2000325a:	9c0b      	ldr	r4, [sp, #44]	@ 0x2c
2000325c:	e007      	b.n	2000326e <_vsnprintf+0x5ee>
2000325e:	f102 0b01 	add.w	fp, r2, #1
20003262:	463b      	mov	r3, r7
20003264:	4649      	mov	r1, r9
20003266:	2020      	movs	r0, #32
20003268:	47c0      	blx	r8
2000326a:	4633      	mov	r3, r6
2000326c:	465a      	mov	r2, fp
2000326e:	1c5e      	adds	r6, r3, #1
20003270:	429c      	cmp	r4, r3
20003272:	d8f4      	bhi.n	2000325e <_vsnprintf+0x5de>
20003274:	f8dd b030 	ldr.w	fp, [sp, #48]	@ 0x30
20003278:	462c      	mov	r4, r5
2000327a:	4633      	mov	r3, r6
2000327c:	940c      	str	r4, [sp, #48]	@ 0x30
2000327e:	9e0a      	ldr	r6, [sp, #40]	@ 0x28
20003280:	465d      	mov	r5, fp
20003282:	469b      	mov	fp, r3
20003284:	e007      	b.n	20003296 <_vsnprintf+0x616>
20003286:	461e      	mov	r6, r3
20003288:	f10a 0a01 	add.w	sl, sl, #1
2000328c:	1c54      	adds	r4, r2, #1
2000328e:	463b      	mov	r3, r7
20003290:	4649      	mov	r1, r9
20003292:	47c0      	blx	r8
20003294:	4622      	mov	r2, r4
20003296:	f89a 0000 	ldrb.w	r0, [sl]
2000329a:	b120      	cbz	r0, 200032a6 <_vsnprintf+0x626>
2000329c:	2d00      	cmp	r5, #0
2000329e:	d0f3      	beq.n	20003288 <_vsnprintf+0x608>
200032a0:	1e73      	subs	r3, r6, #1
200032a2:	2e00      	cmp	r6, #0
200032a4:	d1ef      	bne.n	20003286 <_vsnprintf+0x606>
200032a6:	9c0c      	ldr	r4, [sp, #48]	@ 0x30
200032a8:	4615      	mov	r5, r2
200032aa:	465b      	mov	r3, fp
200032ac:	b91c      	cbnz	r4, 200032b6 <_vsnprintf+0x636>
200032ae:	9b0d      	ldr	r3, [sp, #52]	@ 0x34
200032b0:	3301      	adds	r3, #1
200032b2:	930d      	str	r3, [sp, #52]	@ 0x34
200032b4:	e4f9      	b.n	20002caa <_vsnprintf+0x2a>
200032b6:	9e0b      	ldr	r6, [sp, #44]	@ 0x2c
200032b8:	e006      	b.n	200032c8 <_vsnprintf+0x648>
200032ba:	1c55      	adds	r5, r2, #1
200032bc:	463b      	mov	r3, r7
200032be:	4649      	mov	r1, r9
200032c0:	2020      	movs	r0, #32
200032c2:	47c0      	blx	r8
200032c4:	4623      	mov	r3, r4
200032c6:	462a      	mov	r2, r5
200032c8:	1c5c      	adds	r4, r3, #1
200032ca:	429e      	cmp	r6, r3
200032cc:	d8f5      	bhi.n	200032ba <_vsnprintf+0x63a>
200032ce:	4615      	mov	r5, r2
200032d0:	e7ed      	b.n	200032ae <_vsnprintf+0x62e>
200032d2:	f046 0621 	orr.w	r6, r6, #33	@ 0x21
200032d6:	9b18      	ldr	r3, [sp, #96]	@ 0x60
200032d8:	1d1a      	adds	r2, r3, #4
200032da:	9218      	str	r2, [sp, #96]	@ 0x60
200032dc:	681b      	ldr	r3, [r3, #0]
200032de:	9605      	str	r6, [sp, #20]
200032e0:	2208      	movs	r2, #8
200032e2:	9204      	str	r2, [sp, #16]
200032e4:	9a0a      	ldr	r2, [sp, #40]	@ 0x28
200032e6:	9203      	str	r2, [sp, #12]
200032e8:	2210      	movs	r2, #16
200032ea:	9202      	str	r2, [sp, #8]
200032ec:	2200      	movs	r2, #0
200032ee:	9201      	str	r2, [sp, #4]
200032f0:	9300      	str	r3, [sp, #0]
200032f2:	463b      	mov	r3, r7
200032f4:	462a      	mov	r2, r5
200032f6:	4649      	mov	r1, r9
200032f8:	4640      	mov	r0, r8
200032fa:	f7ff f839 	bl	20002370 <_ntoa_long>
200032fe:	4605      	mov	r5, r0
20003300:	9b0d      	ldr	r3, [sp, #52]	@ 0x34
20003302:	3301      	adds	r3, #1
20003304:	930d      	str	r3, [sp, #52]	@ 0x34
20003306:	e4d0      	b.n	20002caa <_vsnprintf+0x2a>
20003308:	1c6c      	adds	r4, r5, #1
2000330a:	463b      	mov	r3, r7
2000330c:	462a      	mov	r2, r5
2000330e:	4649      	mov	r1, r9
20003310:	2025      	movs	r0, #37	@ 0x25
20003312:	47c0      	blx	r8
20003314:	9b0d      	ldr	r3, [sp, #52]	@ 0x34
20003316:	3301      	adds	r3, #1
20003318:	930d      	str	r3, [sp, #52]	@ 0x34
2000331a:	4625      	mov	r5, r4
2000331c:	e4c5      	b.n	20002caa <_vsnprintf+0x2a>
2000331e:	1c6c      	adds	r4, r5, #1
20003320:	463b      	mov	r3, r7
20003322:	462a      	mov	r2, r5
20003324:	4649      	mov	r1, r9
20003326:	47c0      	blx	r8
20003328:	9b0d      	ldr	r3, [sp, #52]	@ 0x34
2000332a:	3301      	adds	r3, #1
2000332c:	930d      	str	r3, [sp, #52]	@ 0x34
2000332e:	4625      	mov	r5, r4
20003330:	e4bb      	b.n	20002caa <_vsnprintf+0x2a>
20003332:	f8df 8020 	ldr.w	r8, [pc, #32]	@ 20003354 <_vsnprintf+0x6d4>
20003336:	e4ad      	b.n	20002c94 <_vsnprintf+0x14>
20003338:	42bd      	cmp	r5, r7
2000333a:	d308      	bcc.n	2000334e <_vsnprintf+0x6ce>
2000333c:	1e7a      	subs	r2, r7, #1
2000333e:	463b      	mov	r3, r7
20003340:	4649      	mov	r1, r9
20003342:	2000      	movs	r0, #0
20003344:	47c0      	blx	r8
20003346:	4628      	mov	r0, r5
20003348:	b00f      	add	sp, #60	@ 0x3c
2000334a:	e8bd 8ff0 	ldmia.w	sp!, {r4, r5, r6, r7, r8, r9, sl, fp, pc}
2000334e:	462a      	mov	r2, r5
20003350:	e7f5      	b.n	2000333e <_vsnprintf+0x6be>
20003352:	bf00      	nop
20003354:	20002189 	.word	0x20002189

20003358 <vfctprintf>:
20003358:	b500      	push	{lr}
2000335a:	b085      	sub	sp, #20
2000335c:	9002      	str	r0, [sp, #8]
2000335e:	9103      	str	r1, [sp, #12]
20003360:	9300      	str	r3, [sp, #0]
20003362:	4613      	mov	r3, r2
20003364:	f04f 32ff 	mov.w	r2, #4294967295
20003368:	a902      	add	r1, sp, #8
2000336a:	4803      	ldr	r0, [pc, #12]	@ (20003378 <vfctprintf+0x20>)
2000336c:	f7ff fc88 	bl	20002c80 <_vsnprintf>
20003370:	b005      	add	sp, #20
20003372:	f85d fb04 	ldr.w	pc, [sp], #4
20003376:	bf00      	nop
20003378:	2000218b 	.word	0x2000218b

2000337c <_exit>:
2000337c:	be00      	bkpt	0x0000
2000337e:	e7fd      	b.n	2000337c <_exit>

20003380 <exit>:
20003380:	b508      	push	{r3, lr}
20003382:	f7ff fffb 	bl	2000337c <_exit>
	...

20003388 <__assert_func>:
20003388:	b500      	push	{lr}
2000338a:	b083      	sub	sp, #12
2000338c:	468c      	mov	ip, r1
2000338e:	4619      	mov	r1, r3
20003390:	b15a      	cbz	r2, 200033aa <__assert_func+0x22>
20003392:	4614      	mov	r4, r2
20003394:	4b06      	ldr	r3, [pc, #24]	@ (200033b0 <__assert_func+0x28>)
20003396:	9401      	str	r4, [sp, #4]
20003398:	9300      	str	r3, [sp, #0]
2000339a:	4663      	mov	r3, ip
2000339c:	4602      	mov	r2, r0
2000339e:	4805      	ldr	r0, [pc, #20]	@ (200033b4 <__assert_func+0x2c>)
200033a0:	f000 f93c 	bl	2000361c <__wrap_printf>
200033a4:	2001      	movs	r0, #1
200033a6:	f7ff ffe9 	bl	2000337c <_exit>
200033aa:	4b03      	ldr	r3, [pc, #12]	@ (200033b8 <__assert_func+0x30>)
200033ac:	461c      	mov	r4, r3
200033ae:	e7f2      	b.n	20003396 <__assert_func+0xe>
200033b0:	200054d4 	.word	0x200054d4
200033b4:	200054e4 	.word	0x200054e4
200033b8:	200054e0 	.word	0x200054e0

200033bc <runtime_init>:
200033bc:	b510      	push	{r4, lr}
200033be:	f3ef 8305 	mrs	r3, IPSR
200033c2:	b2db      	uxtb	r3, r3
200033c4:	b103      	cbz	r3, 200033c8 <runtime_init+0xc>
200033c6:	be00      	bkpt	0x0000
200033c8:	f7fe fc8a 	bl	20001ce0 <runtime_run_initializers>
200033cc:	4c04      	ldr	r4, [pc, #16]	@ (200033e0 <runtime_init+0x24>)
200033ce:	e002      	b.n	200033d6 <runtime_init+0x1a>
200033d0:	f854 3b04 	ldr.w	r3, [r4], #4
200033d4:	4798      	blx	r3
200033d6:	4b03      	ldr	r3, [pc, #12]	@ (200033e4 <runtime_init+0x28>)
200033d8:	429c      	cmp	r4, r3
200033da:	d3f9      	bcc.n	200033d0 <runtime_init+0x14>
200033dc:	bd10      	pop	{r4, pc}
200033de:	bf00      	nop
200033e0:	20005ab8 	.word	0x20005ab8
200033e4:	20005abc 	.word	0x20005abc

200033e8 <stdio_out_chars_no_crlf>:
200033e8:	b508      	push	{r3, lr}
200033ea:	4603      	mov	r3, r0
200033ec:	4608      	mov	r0, r1
200033ee:	681b      	ldr	r3, [r3, #0]
200033f0:	4611      	mov	r1, r2
200033f2:	4798      	blx	r3
200033f4:	bd08      	pop	{r3, pc}
	...

200033f8 <stdio_out_chars_crlf>:
200033f8:	b5f8      	push	{r3, r4, r5, r6, r7, lr}
200033fa:	4607      	mov	r7, r0
200033fc:	460d      	mov	r5, r1
200033fe:	4616      	mov	r6, r2
20003400:	7d43      	ldrb	r3, [r0, #21]
20003402:	b113      	cbz	r3, 2000340a <stdio_out_chars_crlf+0x12>
20003404:	2400      	movs	r4, #0
20003406:	4620      	mov	r0, r4
20003408:	e00c      	b.n	20003424 <stdio_out_chars_crlf+0x2c>
2000340a:	6803      	ldr	r3, [r0, #0]
2000340c:	4611      	mov	r1, r2
2000340e:	4628      	mov	r0, r5
20003410:	4798      	blx	r3
20003412:	e02e      	b.n	20003472 <stdio_out_chars_crlf+0x7a>
20003414:	7d3b      	ldrb	r3, [r7, #20]
20003416:	e010      	b.n	2000343a <stdio_out_chars_crlf+0x42>
20003418:	683b      	ldr	r3, [r7, #0]
2000341a:	2102      	movs	r1, #2
2000341c:	4815      	ldr	r0, [pc, #84]	@ (20003474 <stdio_out_chars_crlf+0x7c>)
2000341e:	4798      	blx	r3
20003420:	1c60      	adds	r0, r4, #1
20003422:	3401      	adds	r4, #1
20003424:	42b4      	cmp	r4, r6
20003426:	da14      	bge.n	20003452 <stdio_out_chars_crlf+0x5a>
20003428:	2c00      	cmp	r4, #0
2000342a:	ddf3      	ble.n	20003414 <stdio_out_chars_crlf+0x1c>
2000342c:	192b      	adds	r3, r5, r4
2000342e:	f813 3c01 	ldrb.w	r3, [r3, #-1]
20003432:	2b0d      	cmp	r3, #13
20003434:	bf14      	ite	ne
20003436:	2300      	movne	r3, #0
20003438:	2301      	moveq	r3, #1
2000343a:	5d2a      	ldrb	r2, [r5, r4]
2000343c:	2a0a      	cmp	r2, #10
2000343e:	d1f0      	bne.n	20003422 <stdio_out_chars_crlf+0x2a>
20003440:	2b00      	cmp	r3, #0
20003442:	d1ee      	bne.n	20003422 <stdio_out_chars_crlf+0x2a>
20003444:	42a0      	cmp	r0, r4
20003446:	dae7      	bge.n	20003418 <stdio_out_chars_crlf+0x20>
20003448:	683b      	ldr	r3, [r7, #0]
2000344a:	1a21      	subs	r1, r4, r0
2000344c:	4428      	add	r0, r5
2000344e:	4798      	blx	r3
20003450:	e7e2      	b.n	20003418 <stdio_out_chars_crlf+0x20>
20003452:	42b0      	cmp	r0, r6
20003454:	da03      	bge.n	2000345e <stdio_out_chars_crlf+0x66>
20003456:	683b      	ldr	r3, [r7, #0]
20003458:	1a31      	subs	r1, r6, r0
2000345a:	4428      	add	r0, r5
2000345c:	4798      	blx	r3
2000345e:	2e00      	cmp	r6, #0
20003460:	dd07      	ble.n	20003472 <stdio_out_chars_crlf+0x7a>
20003462:	4435      	add	r5, r6
20003464:	f815 3c01 	ldrb.w	r3, [r5, #-1]
20003468:	2b0d      	cmp	r3, #13
2000346a:	bf14      	ite	ne
2000346c:	2300      	movne	r3, #0
2000346e:	2301      	moveq	r3, #1
20003470:	753b      	strb	r3, [r7, #20]
20003472:	bdf8      	pop	{r3, r4, r5, r6, r7, pc}
20003474:	200059b8 	.word	0x200059b8

20003478 <stdio_stack_buffer_flush>:
20003478:	b538      	push	{r3, r4, r5, lr}
2000347a:	6803      	ldr	r3, [r0, #0]
2000347c:	b1bb      	cbz	r3, 200034ae <stdio_stack_buffer_flush+0x36>
2000347e:	4605      	mov	r5, r0
20003480:	4b0b      	ldr	r3, [pc, #44]	@ (200034b0 <stdio_stack_buffer_flush+0x38>)
20003482:	681c      	ldr	r4, [r3, #0]
20003484:	e006      	b.n	20003494 <stdio_stack_buffer_flush+0x1c>
20003486:	4629      	mov	r1, r5
20003488:	f851 2b04 	ldr.w	r2, [r1], #4
2000348c:	4620      	mov	r0, r4
2000348e:	f7ff ffb3 	bl	200033f8 <stdio_out_chars_crlf>
20003492:	6924      	ldr	r4, [r4, #16]
20003494:	b14c      	cbz	r4, 200034aa <stdio_stack_buffer_flush+0x32>
20003496:	6823      	ldr	r3, [r4, #0]
20003498:	2b00      	cmp	r3, #0
2000349a:	d0fa      	beq.n	20003492 <stdio_stack_buffer_flush+0x1a>
2000349c:	4b05      	ldr	r3, [pc, #20]	@ (200034b4 <stdio_stack_buffer_flush+0x3c>)
2000349e:	681b      	ldr	r3, [r3, #0]
200034a0:	2b00      	cmp	r3, #0
200034a2:	d0f0      	beq.n	20003486 <stdio_stack_buffer_flush+0xe>
200034a4:	42a3      	cmp	r3, r4
200034a6:	d1f4      	bne.n	20003492 <stdio_stack_buffer_flush+0x1a>
200034a8:	e7ed      	b.n	20003486 <stdio_stack_buffer_flush+0xe>
200034aa:	2300      	movs	r3, #0
200034ac:	602b      	str	r3, [r5, #0]
200034ae:	bd38      	pop	{r3, r4, r5, pc}
200034b0:	20007424 	.word	0x20007424
200034b4:	20007428 	.word	0x20007428

200034b8 <stdio_buffered_printer>:
200034b8:	b538      	push	{r3, r4, r5, lr}
200034ba:	4605      	mov	r5, r0
200034bc:	460c      	mov	r4, r1
200034be:	680b      	ldr	r3, [r1, #0]
200034c0:	2b80      	cmp	r3, #128	@ 0x80
200034c2:	d005      	beq.n	200034d0 <stdio_buffered_printer+0x18>
200034c4:	6823      	ldr	r3, [r4, #0]
200034c6:	1c5a      	adds	r2, r3, #1
200034c8:	6022      	str	r2, [r4, #0]
200034ca:	441c      	add	r4, r3
200034cc:	7125      	strb	r5, [r4, #4]
200034ce:	bd38      	pop	{r3, r4, r5, pc}
200034d0:	4608      	mov	r0, r1
200034d2:	f7ff ffd1 	bl	20003478 <stdio_stack_buffer_flush>
200034d6:	e7f5      	b.n	200034c4 <stdio_buffered_printer+0xc>

200034d8 <stdout_serialize_begin>:
200034d8:	b508      	push	{r3, lr}
200034da:	f7fe f9f3 	bl	200018c4 <time_us_64>
200034de:	4a07      	ldr	r2, [pc, #28]	@ (200034fc <stdout_serialize_begin+0x24>)
200034e0:	1882      	adds	r2, r0, r2
200034e2:	f141 0300 	adc.w	r3, r1, #0
200034e6:	2b00      	cmp	r3, #0
200034e8:	db03      	blt.n	200034f2 <stdout_serialize_begin+0x1a>
200034ea:	4805      	ldr	r0, [pc, #20]	@ (20003500 <stdout_serialize_begin+0x28>)
200034ec:	f001 fbec 	bl	20004cc8 <mutex_try_enter_block_until>
200034f0:	bd08      	pop	{r3, pc}
200034f2:	f04f 32ff 	mov.w	r2, #4294967295
200034f6:	f06f 4300 	mvn.w	r3, #2147483648	@ 0x80000000
200034fa:	e7f6      	b.n	200034ea <stdout_serialize_begin+0x12>
200034fc:	000f4240 	.word	0x000f4240
20003500:	20005a70 	.word	0x20005a70

20003504 <stdout_serialize_end>:
20003504:	b508      	push	{r3, lr}
20003506:	4802      	ldr	r0, [pc, #8]	@ (20003510 <stdout_serialize_end+0xc>)
20003508:	f001 fbf8 	bl	20004cfc <mutex_exit>
2000350c:	bd08      	pop	{r3, pc}
2000350e:	bf00      	nop
20003510:	20005a70 	.word	0x20005a70

20003514 <stdio_put_string>:
20003514:	e92d 43f0 	stmdb	sp!, {r4, r5, r6, r7, r8, r9, lr}
20003518:	b083      	sub	sp, #12
2000351a:	4606      	mov	r6, r0
2000351c:	460d      	mov	r5, r1
2000351e:	4690      	mov	r8, r2
20003520:	461c      	mov	r4, r3
20003522:	f7ff ffd9 	bl	200034d8 <stdout_serialize_begin>
20003526:	4681      	mov	r9, r0
20003528:	f1b5 3fff 	cmp.w	r5, #4294967295
2000352c:	d004      	beq.n	20003538 <stdio_put_string+0x24>
2000352e:	b144      	cbz	r4, 20003542 <stdio_put_string+0x2e>
20003530:	4f17      	ldr	r7, [pc, #92]	@ (20003590 <stdio_put_string+0x7c>)
20003532:	4b18      	ldr	r3, [pc, #96]	@ (20003594 <stdio_put_string+0x80>)
20003534:	681c      	ldr	r4, [r3, #0]
20003536:	e007      	b.n	20003548 <stdio_put_string+0x34>
20003538:	4630      	mov	r0, r6
2000353a:	f000 fd95 	bl	20004068 <strlen>
2000353e:	4605      	mov	r5, r0
20003540:	e7f5      	b.n	2000352e <stdio_put_string+0x1a>
20003542:	4f15      	ldr	r7, [pc, #84]	@ (20003598 <stdio_put_string+0x84>)
20003544:	e7f5      	b.n	20003532 <stdio_put_string+0x1e>
20003546:	6924      	ldr	r4, [r4, #16]
20003548:	b1bc      	cbz	r4, 2000357a <stdio_put_string+0x66>
2000354a:	6823      	ldr	r3, [r4, #0]
2000354c:	2b00      	cmp	r3, #0
2000354e:	d0fa      	beq.n	20003546 <stdio_put_string+0x32>
20003550:	4b12      	ldr	r3, [pc, #72]	@ (2000359c <stdio_put_string+0x88>)
20003552:	681b      	ldr	r3, [r3, #0]
20003554:	b10b      	cbz	r3, 2000355a <stdio_put_string+0x46>
20003556:	42a3      	cmp	r3, r4
20003558:	d1f5      	bne.n	20003546 <stdio_put_string+0x32>
2000355a:	462a      	mov	r2, r5
2000355c:	4631      	mov	r1, r6
2000355e:	4620      	mov	r0, r4
20003560:	47b8      	blx	r7
20003562:	f1b8 0f00 	cmp.w	r8, #0
20003566:	d0ee      	beq.n	20003546 <stdio_put_string+0x32>
20003568:	230a      	movs	r3, #10
2000356a:	f88d 3007 	strb.w	r3, [sp, #7]
2000356e:	2201      	movs	r2, #1
20003570:	f10d 0107 	add.w	r1, sp, #7
20003574:	4620      	mov	r0, r4
20003576:	47b8      	blx	r7
20003578:	e7e5      	b.n	20003546 <stdio_put_string+0x32>
2000357a:	f1b9 0f00 	cmp.w	r9, #0
2000357e:	d103      	bne.n	20003588 <stdio_put_string+0x74>
20003580:	4628      	mov	r0, r5
20003582:	b003      	add	sp, #12
20003584:	e8bd 83f0 	ldmia.w	sp!, {r4, r5, r6, r7, r8, r9, pc}
20003588:	f7ff ffbc 	bl	20003504 <stdout_serialize_end>
2000358c:	e7f8      	b.n	20003580 <stdio_put_string+0x6c>
2000358e:	bf00      	nop
20003590:	200033f9 	.word	0x200033f9
20003594:	20007424 	.word	0x20007424
20003598:	200033e9 	.word	0x200033e9
2000359c:	20007428 	.word	0x20007428

200035a0 <stdio_flush>:
200035a0:	b510      	push	{r4, lr}
200035a2:	4b05      	ldr	r3, [pc, #20]	@ (200035b8 <stdio_flush+0x18>)
200035a4:	681c      	ldr	r4, [r3, #0]
200035a6:	e000      	b.n	200035aa <stdio_flush+0xa>
200035a8:	6924      	ldr	r4, [r4, #16]
200035aa:	b124      	cbz	r4, 200035b6 <stdio_flush+0x16>
200035ac:	6863      	ldr	r3, [r4, #4]
200035ae:	2b00      	cmp	r3, #0
200035b0:	d0fa      	beq.n	200035a8 <stdio_flush+0x8>
200035b2:	4798      	blx	r3
200035b4:	e7f8      	b.n	200035a8 <stdio_flush+0x8>
200035b6:	bd10      	pop	{r4, pc}
200035b8:	20007424 	.word	0x20007424

200035bc <__wrap_puts>:
200035bc:	b538      	push	{r3, r4, r5, lr}
200035be:	4605      	mov	r5, r0
200035c0:	f000 fd52 	bl	20004068 <strlen>
200035c4:	4604      	mov	r4, r0
200035c6:	2301      	movs	r3, #1
200035c8:	461a      	mov	r2, r3
200035ca:	4601      	mov	r1, r0
200035cc:	4628      	mov	r0, r5
200035ce:	f7ff ffa1 	bl	20003514 <stdio_put_string>
200035d2:	f7ff ffe5 	bl	200035a0 <stdio_flush>
200035d6:	4620      	mov	r0, r4
200035d8:	bd38      	pop	{r3, r4, r5, pc}
	...

200035dc <__wrap_vprintf>:
200035dc:	b5f0      	push	{r4, r5, r6, r7, lr}
200035de:	b0a3      	sub	sp, #140	@ 0x8c
200035e0:	4604      	mov	r4, r0
200035e2:	460e      	mov	r6, r1
200035e4:	f7ff ff78 	bl	200034d8 <stdout_serialize_begin>
200035e8:	4605      	mov	r5, r0
200035ea:	2300      	movs	r3, #0
200035ec:	9301      	str	r3, [sp, #4]
200035ee:	af01      	add	r7, sp, #4
200035f0:	4633      	mov	r3, r6
200035f2:	4622      	mov	r2, r4
200035f4:	4639      	mov	r1, r7
200035f6:	4808      	ldr	r0, [pc, #32]	@ (20003618 <__wrap_vprintf+0x3c>)
200035f8:	f7ff feae 	bl	20003358 <vfctprintf>
200035fc:	4604      	mov	r4, r0
200035fe:	4638      	mov	r0, r7
20003600:	f7ff ff3a 	bl	20003478 <stdio_stack_buffer_flush>
20003604:	f7ff ffcc 	bl	200035a0 <stdio_flush>
20003608:	b915      	cbnz	r5, 20003610 <__wrap_vprintf+0x34>
2000360a:	4620      	mov	r0, r4
2000360c:	b023      	add	sp, #140	@ 0x8c
2000360e:	bdf0      	pop	{r4, r5, r6, r7, pc}
20003610:	f7ff ff78 	bl	20003504 <stdout_serialize_end>
20003614:	e7f9      	b.n	2000360a <__wrap_vprintf+0x2e>
20003616:	bf00      	nop
20003618:	200034b9 	.word	0x200034b9

2000361c <__wrap_printf>:
2000361c:	b40f      	push	{r0, r1, r2, r3}
2000361e:	b500      	push	{lr}
20003620:	b083      	sub	sp, #12
20003622:	a904      	add	r1, sp, #16
20003624:	f851 0b04 	ldr.w	r0, [r1], #4
20003628:	9101      	str	r1, [sp, #4]
2000362a:	f7ff ffd7 	bl	200035dc <__wrap_vprintf>
2000362e:	b003      	add	sp, #12
20003630:	f85d eb04 	ldr.w	lr, [sp], #4
20003634:	b004      	add	sp, #16
20003636:	4770      	bx	lr

20003638 <pio_get_default_sm_config>:
20003638:	2200      	movs	r2, #0
2000363a:	6002      	str	r2, [r0, #0]
2000363c:	6042      	str	r2, [r0, #4]
2000363e:	6082      	str	r2, [r0, #8]
20003640:	60c2      	str	r2, [r0, #12]
20003642:	6102      	str	r2, [r0, #16]
20003644:	f04f 32ff 	mov.w	r2, #4294967295
20003648:	6102      	str	r2, [r0, #16]
2000364a:	f44f 3280 	mov.w	r2, #65536	@ 0x10000
2000364e:	6002      	str	r2, [r0, #0]
20003650:	f44f 32f8 	mov.w	r2, #126976	@ 0x1f000
20003654:	6042      	str	r2, [r0, #4]
20003656:	f44f 2280 	mov.w	r2, #262144	@ 0x40000
2000365a:	6082      	str	r2, [r0, #8]
2000365c:	f44f 2240 	mov.w	r2, #786432	@ 0xc0000
20003660:	6082      	str	r2, [r0, #8]
20003662:	4770      	bx	lr

20003664 <pio_sm_set_config>:
20003664:	b470      	push	{r4, r5, r6}
20003666:	6814      	ldr	r4, [r2, #0]
20003668:	eb01 0341 	add.w	r3, r1, r1, lsl #1
2000366c:	eb00 03c3 	add.w	r3, r0, r3, lsl #3
20003670:	f8c3 40c8 	str.w	r4, [r3, #200]	@ 0xc8
20003674:	6894      	ldr	r4, [r2, #8]
20003676:	f8c3 40d0 	str.w	r4, [r3, #208]	@ 0xd0
2000367a:	6915      	ldr	r5, [r2, #16]
2000367c:	ea6f 0c05 	mvn.w	ip, r5
20003680:	4b18      	ldr	r3, [pc, #96]	@ (200036e4 <pio_sm_set_config+0x80>)
20003682:	ea03 131c 	and.w	r3, r3, ip, lsr #4
20003686:	ea0c 0c5c 	and.w	ip, ip, ip, lsr #1
2000368a:	ea03 0555 	and.w	r5, r3, r5, lsr #1
2000368e:	f8d0 4168 	ldr.w	r4, [r0, #360]	@ 0x168
20003692:	ea1c 0f03 	tst.w	ip, r3
20003696:	d000      	beq.n	2000369a <pio_sm_set_config+0x36>
20003698:	b9f4      	cbnz	r4, 200036d8 <pio_sm_set_config+0x74>
2000369a:	b1c5      	cbz	r5, 200036ce <pio_sm_set_config+0x6a>
2000369c:	b1fc      	cbz	r4, 200036de <pio_sm_set_config+0x7a>
2000369e:	6856      	ldr	r6, [r2, #4]
200036a0:	0d1d      	lsrs	r5, r3, #20
200036a2:	072d      	lsls	r5, r5, #28
200036a4:	406e      	eors	r6, r5
200036a6:	eb01 0541 	add.w	r5, r1, r1, lsl #1
200036aa:	eb00 05c5 	add.w	r5, r0, r5, lsl #3
200036ae:	f8c5 60cc 	str.w	r6, [r5, #204]	@ 0xcc
200036b2:	68d2      	ldr	r2, [r2, #12]
200036b4:	b10c      	cbz	r4, 200036ba <pio_sm_set_config+0x56>
200036b6:	031b      	lsls	r3, r3, #12
200036b8:	0a1c      	lsrs	r4, r3, #8
200036ba:	4062      	eors	r2, r4
200036bc:	eb01 0141 	add.w	r1, r1, r1, lsl #1
200036c0:	eb00 00c1 	add.w	r0, r0, r1, lsl #3
200036c4:	f8c0 20dc 	str.w	r2, [r0, #220]	@ 0xdc
200036c8:	2000      	movs	r0, #0
200036ca:	bc70      	pop	{r4, r5, r6}
200036cc:	4770      	bx	lr
200036ce:	6856      	ldr	r6, [r2, #4]
200036d0:	2c00      	cmp	r4, #0
200036d2:	d1e5      	bne.n	200036a0 <pio_sm_set_config+0x3c>
200036d4:	4625      	mov	r5, r4
200036d6:	e7e5      	b.n	200036a4 <pio_sm_set_config+0x40>
200036d8:	f06f 000a 	mvn.w	r0, #10
200036dc:	e7f5      	b.n	200036ca <pio_sm_set_config+0x66>
200036de:	f06f 000a 	mvn.w	r0, #10
200036e2:	e7f2      	b.n	200036ca <pio_sm_set_config+0x66>
200036e4:	00108421 	.word	0x00108421

200036e8 <pio_set_gpio_base_unsafe>:
200036e8:	460a      	mov	r2, r1
200036ea:	b109      	cbz	r1, 200036f0 <pio_set_gpio_base_unsafe+0x8>
200036ec:	2910      	cmp	r1, #16
200036ee:	d10c      	bne.n	2000370a <pio_set_gpio_base_unsafe+0x22>
200036f0:	f100 432f 	add.w	r3, r0, #2936012800	@ 0xaf000000
200036f4:	f503 0360 	add.w	r3, r3, #14680064	@ 0xe00000
200036f8:	0d1b      	lsrs	r3, r3, #20
200036fa:	4907      	ldr	r1, [pc, #28]	@ (20003718 <pio_set_gpio_base_unsafe+0x30>)
200036fc:	f851 3023 	ldr.w	r3, [r1, r3, lsl #2]
20003700:	b933      	cbnz	r3, 20003710 <pio_set_gpio_base_unsafe+0x28>
20003702:	f8c0 2168 	str.w	r2, [r0, #360]	@ 0x168
20003706:	2000      	movs	r0, #0
20003708:	4770      	bx	lr
2000370a:	f06f 000a 	mvn.w	r0, #10
2000370e:	4770      	bx	lr
20003710:	f06f 000b 	mvn.w	r0, #11
20003714:	4770      	bx	lr
20003716:	bf00      	nop
20003718:	200067a0 	.word	0x200067a0

2000371c <is_gpio_compatible>:
2000371c:	f8d0 3168 	ldr.w	r3, [r0, #360]	@ 0x168
20003720:	b123      	cbz	r3, 2000372c <is_gpio_compatible+0x10>
20003722:	f011 0f01 	tst.w	r1, #1
20003726:	d006      	beq.n	20003736 <is_gpio_compatible+0x1a>
20003728:	2000      	movs	r0, #0
2000372a:	4770      	bx	lr
2000372c:	f011 0f04 	tst.w	r1, #4
20003730:	d003      	beq.n	2000373a <is_gpio_compatible+0x1e>
20003732:	2000      	movs	r0, #0
20003734:	4770      	bx	lr
20003736:	2001      	movs	r0, #1
20003738:	4770      	bx	lr
2000373a:	2001      	movs	r0, #1
2000373c:	4770      	bx	lr

2000373e <is_program_gpio_compatible>:
2000373e:	b508      	push	{r3, lr}
20003740:	79c9      	ldrb	r1, [r1, #7]
20003742:	f7ff ffeb 	bl	2000371c <is_gpio_compatible>
20003746:	bd08      	pop	{r3, pc}

20003748 <add_program_at_offset_check>:
20003748:	b570      	push	{r4, r5, r6, lr}
2000374a:	4604      	mov	r4, r0
2000374c:	460d      	mov	r5, r1
2000374e:	4616      	mov	r6, r2
20003750:	f7ff fff5 	bl	2000373e <is_program_gpio_compatible>
20003754:	b1d0      	cbz	r0, 2000378c <add_program_at_offset_check+0x44>
20003756:	f995 3005 	ldrsb.w	r3, [r5, #5]
2000375a:	2b00      	cmp	r3, #0
2000375c:	db01      	blt.n	20003762 <add_program_at_offset_check+0x1a>
2000375e:	42b3      	cmp	r3, r6
20003760:	d117      	bne.n	20003792 <add_program_at_offset_check+0x4a>
20003762:	f104 402f 	add.w	r0, r4, #2936012800	@ 0xaf000000
20003766:	f500 0060 	add.w	r0, r0, #14680064	@ 0xe00000
2000376a:	0d00      	lsrs	r0, r0, #20
2000376c:	4b0a      	ldr	r3, [pc, #40]	@ (20003798 <add_program_at_offset_check+0x50>)
2000376e:	f853 1020 	ldr.w	r1, [r3, r0, lsl #2]
20003772:	792a      	ldrb	r2, [r5, #4]
20003774:	2301      	movs	r3, #1
20003776:	4093      	lsls	r3, r2
20003778:	3b01      	subs	r3, #1
2000377a:	fa03 f206 	lsl.w	r2, r3, r6
2000377e:	420a      	tst	r2, r1
20003780:	d101      	bne.n	20003786 <add_program_at_offset_check+0x3e>
20003782:	2000      	movs	r0, #0
20003784:	bd70      	pop	{r4, r5, r6, pc}
20003786:	f06f 0008 	mvn.w	r0, #8
2000378a:	e7fb      	b.n	20003784 <add_program_at_offset_check+0x3c>
2000378c:	f06f 000a 	mvn.w	r0, #10
20003790:	e7f8      	b.n	20003784 <add_program_at_offset_check+0x3c>
20003792:	f06f 000a 	mvn.w	r0, #10
20003796:	e7f5      	b.n	20003784 <add_program_at_offset_check+0x3c>
20003798:	200067a0 	.word	0x200067a0

2000379c <add_program_at_offset>:
2000379c:	b570      	push	{r4, r5, r6, lr}
2000379e:	4604      	mov	r4, r0
200037a0:	460d      	mov	r5, r1
200037a2:	4616      	mov	r6, r2
200037a4:	f7ff ffd0 	bl	20003748 <add_program_at_offset_check>
200037a8:	bb98      	cbnz	r0, 20003812 <add_program_at_offset+0x76>
200037aa:	f04f 0c00 	mov.w	ip, #0
200037ae:	e00f      	b.n	200037d0 <add_program_at_offset+0x34>
200037b0:	f013 0f60 	tst.w	r3, #96	@ 0x60
200037b4:	d117      	bne.n	200037e6 <add_program_at_offset+0x4a>
200037b6:	f8d4 2168 	ldr.w	r2, [r4, #360]	@ 0x168
200037ba:	b292      	uxth	r2, r2
200037bc:	4053      	eors	r3, r2
200037be:	e012      	b.n	200037e6 <add_program_at_offset+0x4a>
200037c0:	eb0c 0e06 	add.w	lr, ip, r6
200037c4:	f10e 0e12 	add.w	lr, lr, #18
200037c8:	f844 302e 	str.w	r3, [r4, lr, lsl #2]
200037cc:	f10c 0c01 	add.w	ip, ip, #1
200037d0:	792b      	ldrb	r3, [r5, #4]
200037d2:	4563      	cmp	r3, ip
200037d4:	d90c      	bls.n	200037f0 <add_program_at_offset+0x54>
200037d6:	682b      	ldr	r3, [r5, #0]
200037d8:	f833 301c 	ldrh.w	r3, [r3, ip, lsl #1]
200037dc:	f403 4260 	and.w	r2, r3, #57344	@ 0xe000
200037e0:	f5b2 5f00 	cmp.w	r2, #8192	@ 0x2000
200037e4:	d0e4      	beq.n	200037b0 <add_program_at_offset+0x14>
200037e6:	f5b3 5f00 	cmp.w	r3, #8192	@ 0x2000
200037ea:	d2e9      	bcs.n	200037c0 <add_program_at_offset+0x24>
200037ec:	4433      	add	r3, r6
200037ee:	e7e7      	b.n	200037c0 <add_program_at_offset+0x24>
200037f0:	2201      	movs	r2, #1
200037f2:	fa02 f303 	lsl.w	r3, r2, r3
200037f6:	3b01      	subs	r3, #1
200037f8:	f104 442f 	add.w	r4, r4, #2936012800	@ 0xaf000000
200037fc:	f504 0460 	add.w	r4, r4, #14680064	@ 0xe00000
20003800:	0d24      	lsrs	r4, r4, #20
20003802:	4904      	ldr	r1, [pc, #16]	@ (20003814 <add_program_at_offset+0x78>)
20003804:	f851 2024 	ldr.w	r2, [r1, r4, lsl #2]
20003808:	40b3      	lsls	r3, r6
2000380a:	431a      	orrs	r2, r3
2000380c:	f841 2024 	str.w	r2, [r1, r4, lsl #2]
20003810:	4630      	mov	r0, r6
20003812:	bd70      	pop	{r4, r5, r6, pc}
20003814:	200067a0 	.word	0x200067a0

20003818 <find_offset_for_program>:
20003818:	b510      	push	{r4, lr}
2000381a:	790a      	ldrb	r2, [r1, #4]
2000381c:	2a20      	cmp	r2, #32
2000381e:	d819      	bhi.n	20003854 <find_offset_for_program+0x3c>
20003820:	f100 402f 	add.w	r0, r0, #2936012800	@ 0xaf000000
20003824:	f500 0060 	add.w	r0, r0, #14680064	@ 0xe00000
20003828:	0d00      	lsrs	r0, r0, #20
2000382a:	4b15      	ldr	r3, [pc, #84]	@ (20003880 <find_offset_for_program+0x68>)
2000382c:	f853 4020 	ldr.w	r4, [r3, r0, lsl #2]
20003830:	2301      	movs	r3, #1
20003832:	4093      	lsls	r3, r2
20003834:	3b01      	subs	r3, #1
20003836:	f991 1005 	ldrsb.w	r1, [r1, #5]
2000383a:	2900      	cmp	r1, #0
2000383c:	db10      	blt.n	20003860 <find_offset_for_program+0x48>
2000383e:	4608      	mov	r0, r1
20003840:	f1c2 0220 	rsb	r2, r2, #32
20003844:	4291      	cmp	r1, r2
20003846:	dc18      	bgt.n	2000387a <find_offset_for_program+0x62>
20003848:	408b      	lsls	r3, r1
2000384a:	4223      	tst	r3, r4
2000384c:	d001      	beq.n	20003852 <find_offset_for_program+0x3a>
2000384e:	f04f 30ff 	mov.w	r0, #4294967295
20003852:	bd10      	pop	{r4, pc}
20003854:	4b0b      	ldr	r3, [pc, #44]	@ (20003884 <find_offset_for_program+0x6c>)
20003856:	4a0c      	ldr	r2, [pc, #48]	@ (20003888 <find_offset_for_program+0x70>)
20003858:	2143      	movs	r1, #67	@ 0x43
2000385a:	480c      	ldr	r0, [pc, #48]	@ (2000388c <find_offset_for_program+0x74>)
2000385c:	f7ff fd94 	bl	20003388 <__assert_func>
20003860:	f1c2 0020 	rsb	r0, r2, #32
20003864:	2800      	cmp	r0, #0
20003866:	db05      	blt.n	20003874 <find_offset_for_program+0x5c>
20003868:	fa03 f200 	lsl.w	r2, r3, r0
2000386c:	4222      	tst	r2, r4
2000386e:	d0f0      	beq.n	20003852 <find_offset_for_program+0x3a>
20003870:	3801      	subs	r0, #1
20003872:	e7f7      	b.n	20003864 <find_offset_for_program+0x4c>
20003874:	f06f 0008 	mvn.w	r0, #8
20003878:	e7eb      	b.n	20003852 <find_offset_for_program+0x3a>
2000387a:	f04f 30ff 	mov.w	r0, #4294967295
2000387e:	e7e8      	b.n	20003852 <find_offset_for_program+0x3a>
20003880:	200067a0 	.word	0x200067a0
20003884:	20005514 	.word	0x20005514
20003888:	200059bc 	.word	0x200059bc
2000388c:	20005540 	.word	0x20005540

20003890 <pio_claim_unused_sm>:
20003890:	b510      	push	{r4, lr}
20003892:	b082      	sub	sp, #8
20003894:	f100 402f 	add.w	r0, r0, #2936012800	@ 0xaf000000
20003898:	f500 0060 	add.w	r0, r0, #14680064	@ 0xe00000
2000389c:	0d00      	lsrs	r0, r0, #20
2000389e:	0084      	lsls	r4, r0, #2
200038a0:	4b07      	ldr	r3, [pc, #28]	@ (200038c0 <pio_claim_unused_sm+0x30>)
200038a2:	9300      	str	r3, [sp, #0]
200038a4:	1ce3      	adds	r3, r4, #3
200038a6:	4622      	mov	r2, r4
200038a8:	4806      	ldr	r0, [pc, #24]	@ (200038c4 <pio_claim_unused_sm+0x34>)
200038aa:	f7fd fb40 	bl	20000f2e <hw_claim_unused_from_range>
200038ae:	4284      	cmp	r4, r0
200038b0:	dc02      	bgt.n	200038b8 <pio_claim_unused_sm+0x28>
200038b2:	1b00      	subs	r0, r0, r4
200038b4:	b002      	add	sp, #8
200038b6:	bd10      	pop	{r4, pc}
200038b8:	f04f 30ff 	mov.w	r0, #4294967295
200038bc:	e7fa      	b.n	200038b4 <pio_claim_unused_sm+0x24>
200038be:	bf00      	nop
200038c0:	20005588 	.word	0x20005588
200038c4:	20006e50 	.word	0x20006e50

200038c8 <pio_set_gpio_base>:
200038c8:	b570      	push	{r4, r5, r6, lr}
200038ca:	4604      	mov	r4, r0
200038cc:	460e      	mov	r6, r1
200038ce:	f7fd faf9 	bl	20000ec4 <hw_claim_lock>
200038d2:	4605      	mov	r5, r0
200038d4:	4631      	mov	r1, r6
200038d6:	4620      	mov	r0, r4
200038d8:	f7ff ff06 	bl	200036e8 <pio_set_gpio_base_unsafe>
200038dc:	4604      	mov	r4, r0
200038de:	4628      	mov	r0, r5
200038e0:	f7fd fb02 	bl	20000ee8 <hw_claim_unlock>
200038e4:	4620      	mov	r0, r4
200038e6:	bd70      	pop	{r4, r5, r6, pc}

200038e8 <pio_add_program>:
200038e8:	b5f8      	push	{r3, r4, r5, r6, r7, lr}
200038ea:	4605      	mov	r5, r0
200038ec:	460e      	mov	r6, r1
200038ee:	f7fd fae9 	bl	20000ec4 <hw_claim_lock>
200038f2:	4607      	mov	r7, r0
200038f4:	4631      	mov	r1, r6
200038f6:	4628      	mov	r0, r5
200038f8:	f7ff ff8e 	bl	20003818 <find_offset_for_program>
200038fc:	1e04      	subs	r4, r0, #0
200038fe:	da04      	bge.n	2000390a <pio_add_program+0x22>
20003900:	4638      	mov	r0, r7
20003902:	f7fd faf1 	bl	20000ee8 <hw_claim_unlock>
20003906:	4620      	mov	r0, r4
20003908:	bdf8      	pop	{r3, r4, r5, r6, r7, pc}
2000390a:	4622      	mov	r2, r4
2000390c:	4631      	mov	r1, r6
2000390e:	4628      	mov	r0, r5
20003910:	f7ff ff44 	bl	2000379c <add_program_at_offset>
20003914:	4604      	mov	r4, r0
20003916:	e7f3      	b.n	20003900 <pio_add_program+0x18>

20003918 <pio_sm_set_consecutive_pindirs>:
20003918:	b5f0      	push	{r4, r5, r6, r7, lr}
2000391a:	f89d 7014 	ldrb.w	r7, [sp, #20]
2000391e:	f8d0 4168 	ldr.w	r4, [r0, #360]	@ 0x168
20003922:	1b12      	subs	r2, r2, r4
20003924:	2a1f      	cmp	r2, #31
20003926:	d843      	bhi.n	200039b0 <pio_sm_set_consecutive_pindirs+0x98>
20003928:	eb01 0441 	add.w	r4, r1, r1, lsl #1
2000392c:	eb00 04c4 	add.w	r4, r0, r4, lsl #3
20003930:	f8d4 60dc 	ldr.w	r6, [r4, #220]	@ 0xdc
20003934:	f8d4 50cc 	ldr.w	r5, [r4, #204]	@ 0xcc
20003938:	eb01 0441 	add.w	r4, r1, r1, lsl #1
2000393c:	00e4      	lsls	r4, r4, #3
2000393e:	34c8      	adds	r4, #200	@ 0xc8
20003940:	4404      	add	r4, r0
20003942:	f504 5440 	add.w	r4, r4, #12288	@ 0x3000
20003946:	f44f 3c00 	mov.w	ip, #131072	@ 0x20000
2000394a:	f8c4 c004 	str.w	ip, [r4, #4]
2000394e:	b117      	cbz	r7, 20003956 <pio_sm_set_consecutive_pindirs+0x3e>
20003950:	f04f 0e1f 	mov.w	lr, #31
20003954:	e015      	b.n	20003982 <pio_sm_set_consecutive_pindirs+0x6a>
20003956:	f04f 0e00 	mov.w	lr, #0
2000395a:	e012      	b.n	20003982 <pio_sm_set_consecutive_pindirs+0x6a>
2000395c:	0154      	lsls	r4, r2, #5
2000395e:	f044 54a0 	orr.w	r4, r4, #335544320	@ 0x14000000
20003962:	eb01 0c41 	add.w	ip, r1, r1, lsl #1
20003966:	eb00 0ccc 	add.w	ip, r0, ip, lsl #3
2000396a:	f8cc 40dc 	str.w	r4, [ip, #220]	@ 0xdc
2000396e:	f44e 4460 	orr.w	r4, lr, #57344	@ 0xe000
20003972:	f044 0480 	orr.w	r4, r4, #128	@ 0x80
20003976:	f8cc 40d8 	str.w	r4, [ip, #216]	@ 0xd8
2000397a:	3b05      	subs	r3, #5
2000397c:	3205      	adds	r2, #5
2000397e:	f002 021f 	and.w	r2, r2, #31
20003982:	2b05      	cmp	r3, #5
20003984:	d8ea      	bhi.n	2000395c <pio_sm_set_consecutive_pindirs+0x44>
20003986:	0152      	lsls	r2, r2, #5
20003988:	ea42 6383 	orr.w	r3, r2, r3, lsl #26
2000398c:	eb01 0241 	add.w	r2, r1, r1, lsl #1
20003990:	eb00 02c2 	add.w	r2, r0, r2, lsl #3
20003994:	f8c2 30dc 	str.w	r3, [r2, #220]	@ 0xdc
20003998:	f44e 4360 	orr.w	r3, lr, #57344	@ 0xe000
2000399c:	f043 0380 	orr.w	r3, r3, #128	@ 0x80
200039a0:	f8c2 30d8 	str.w	r3, [r2, #216]	@ 0xd8
200039a4:	f8c2 60dc 	str.w	r6, [r2, #220]	@ 0xdc
200039a8:	f8c2 50cc 	str.w	r5, [r2, #204]	@ 0xcc
200039ac:	2000      	movs	r0, #0
200039ae:	bdf0      	pop	{r4, r5, r6, r7, pc}
200039b0:	f06f 0004 	mvn.w	r0, #4
200039b4:	e7fb      	b.n	200039ae <pio_sm_set_consecutive_pindirs+0x96>

200039b6 <pio_sm_init>:
200039b6:	b5f0      	push	{r4, r5, r6, r7, lr}
200039b8:	b087      	sub	sp, #28
200039ba:	4605      	mov	r5, r0
200039bc:	460c      	mov	r4, r1
200039be:	4616      	mov	r6, r2
200039c0:	6802      	ldr	r2, [r0, #0]
200039c2:	2101      	movs	r1, #1
200039c4:	40a1      	lsls	r1, r4
200039c6:	ea22 0201 	bic.w	r2, r2, r1
200039ca:	6002      	str	r2, [r0, #0]
200039cc:	b343      	cbz	r3, 20003a20 <pio_sm_init+0x6a>
200039ce:	461a      	mov	r2, r3
200039d0:	4621      	mov	r1, r4
200039d2:	f7ff fe47 	bl	20003664 <pio_sm_set_config>
200039d6:	bb08      	cbnz	r0, 20003a1c <pio_sm_init+0x66>
200039d8:	eb04 0344 	add.w	r3, r4, r4, lsl #1
200039dc:	00db      	lsls	r3, r3, #3
200039de:	33d0      	adds	r3, #208	@ 0xd0
200039e0:	442b      	add	r3, r5
200039e2:	f503 5380 	add.w	r3, r3, #4096	@ 0x1000
200039e6:	f04f 4200 	mov.w	r2, #2147483648	@ 0x80000000
200039ea:	601a      	str	r2, [r3, #0]
200039ec:	601a      	str	r2, [r3, #0]
200039ee:	f04f 3301 	mov.w	r3, #16843009	@ 0x1010101
200039f2:	40a3      	lsls	r3, r4
200039f4:	60ab      	str	r3, [r5, #8]
200039f6:	1d22      	adds	r2, r4, #4
200039f8:	2301      	movs	r3, #1
200039fa:	fa03 f202 	lsl.w	r2, r3, r2
200039fe:	f505 5100 	add.w	r1, r5, #8192	@ 0x2000
20003a02:	600a      	str	r2, [r1, #0]
20003a04:	f104 0208 	add.w	r2, r4, #8
20003a08:	4093      	lsls	r3, r2
20003a0a:	600b      	str	r3, [r1, #0]
20003a0c:	f006 061f 	and.w	r6, r6, #31
20003a10:	eb04 0444 	add.w	r4, r4, r4, lsl #1
20003a14:	eb05 05c4 	add.w	r5, r5, r4, lsl #3
20003a18:	f8c5 60d8 	str.w	r6, [r5, #216]	@ 0xd8
20003a1c:	b007      	add	sp, #28
20003a1e:	bdf0      	pop	{r4, r5, r6, r7, pc}
20003a20:	af01      	add	r7, sp, #4
20003a22:	4638      	mov	r0, r7
20003a24:	f7ff fe08 	bl	20003638 <pio_get_default_sm_config>
20003a28:	463a      	mov	r2, r7
20003a2a:	4621      	mov	r1, r4
20003a2c:	4628      	mov	r0, r5
20003a2e:	f7ff fe19 	bl	20003664 <pio_sm_set_config>
20003a32:	e7d0      	b.n	200039d6 <pio_sm_init+0x20>

20003a34 <core1_trampoline>:
20003a34:	bd03      	pop	{r0, r1, pc}

20003a36 <core1_wrapper>:
20003a36:	b510      	push	{r4, lr}
20003a38:	4604      	mov	r4, r0
20003a3a:	f7fe f959 	bl	20001cf0 <runtime_run_per_core_initializers>
20003a3e:	47a0      	blx	r4
20003a40:	bd10      	pop	{r4, pc}

20003a42 <multicore_fifo_push_blocking>:
20003a42:	f04f 4350 	mov.w	r3, #3489660928	@ 0xd0000000
20003a46:	6d1b      	ldr	r3, [r3, #80]	@ 0x50
20003a48:	f013 0f02 	tst.w	r3, #2
20003a4c:	d0f9      	beq.n	20003a42 <multicore_fifo_push_blocking>
20003a4e:	f04f 4350 	mov.w	r3, #3489660928	@ 0xd0000000
20003a52:	6558      	str	r0, [r3, #84]	@ 0x54
20003a54:	bf40      	sev
20003a56:	4770      	bx	lr

20003a58 <multicore_fifo_pop_blocking>:
20003a58:	e000      	b.n	20003a5c <multicore_fifo_pop_blocking+0x4>
20003a5a:	bf20      	wfe
20003a5c:	f04f 4350 	mov.w	r3, #3489660928	@ 0xd0000000
20003a60:	6d1b      	ldr	r3, [r3, #80]	@ 0x50
20003a62:	f013 0f01 	tst.w	r3, #1
20003a66:	d0f8      	beq.n	20003a5a <multicore_fifo_pop_blocking+0x2>
20003a68:	f04f 4350 	mov.w	r3, #3489660928	@ 0xd0000000
20003a6c:	6d98      	ldr	r0, [r3, #88]	@ 0x58
20003a6e:	4770      	bx	lr

20003a70 <multicore_launch_core1_raw>:
20003a70:	e92d 41f0 	stmdb	sp!, {r4, r5, r6, r7, r8, lr}
20003a74:	b086      	sub	sp, #24
20003a76:	4604      	mov	r4, r0
20003a78:	460f      	mov	r7, r1
20003a7a:	4690      	mov	r8, r2
20003a7c:	2019      	movs	r0, #25
20003a7e:	f7fd fac5 	bl	2000100c <irq_is_enabled>
20003a82:	4606      	mov	r6, r0
20003a84:	2100      	movs	r1, #0
20003a86:	2019      	movs	r0, #25
20003a88:	f7fd fae0 	bl	2000104c <irq_set_enabled>
20003a8c:	2500      	movs	r5, #0
20003a8e:	9500      	str	r5, [sp, #0]
20003a90:	9501      	str	r5, [sp, #4]
20003a92:	2301      	movs	r3, #1
20003a94:	9302      	str	r3, [sp, #8]
20003a96:	f8cd 800c 	str.w	r8, [sp, #12]
20003a9a:	9704      	str	r7, [sp, #16]
20003a9c:	9405      	str	r4, [sp, #20]
20003a9e:	e00d      	b.n	20003abc <multicore_launch_core1_raw+0x4c>
20003aa0:	f04f 4350 	mov.w	r3, #3489660928	@ 0xd0000000
20003aa4:	6d9b      	ldr	r3, [r3, #88]	@ 0x58
20003aa6:	f04f 4350 	mov.w	r3, #3489660928	@ 0xd0000000
20003aaa:	6d1b      	ldr	r3, [r3, #80]	@ 0x50
20003aac:	f013 0f01 	tst.w	r3, #1
20003ab0:	d1f6      	bne.n	20003aa0 <multicore_launch_core1_raw+0x30>
20003ab2:	bf40      	sev
20003ab4:	e009      	b.n	20003aca <multicore_launch_core1_raw+0x5a>
20003ab6:	3501      	adds	r5, #1
20003ab8:	2d05      	cmp	r5, #5
20003aba:	d80f      	bhi.n	20003adc <multicore_launch_core1_raw+0x6c>
20003abc:	ab06      	add	r3, sp, #24
20003abe:	eb03 0385 	add.w	r3, r3, r5, lsl #2
20003ac2:	f853 4c18 	ldr.w	r4, [r3, #-24]
20003ac6:	2c00      	cmp	r4, #0
20003ac8:	d0ed      	beq.n	20003aa6 <multicore_launch_core1_raw+0x36>
20003aca:	4620      	mov	r0, r4
20003acc:	f7ff ffb9 	bl	20003a42 <multicore_fifo_push_blocking>
20003ad0:	f7ff ffc2 	bl	20003a58 <multicore_fifo_pop_blocking>
20003ad4:	4284      	cmp	r4, r0
20003ad6:	d0ee      	beq.n	20003ab6 <multicore_launch_core1_raw+0x46>
20003ad8:	2500      	movs	r5, #0
20003ada:	e7ed      	b.n	20003ab8 <multicore_launch_core1_raw+0x48>
20003adc:	4631      	mov	r1, r6
20003ade:	2019      	movs	r0, #25
20003ae0:	f7fd fab4 	bl	2000104c <irq_set_enabled>
20003ae4:	b006      	add	sp, #24
20003ae6:	e8bd 81f0 	ldmia.w	sp!, {r4, r5, r6, r7, r8, pc}
	...

20003aec <multicore_launch_core1_with_stack>:
20003aec:	b508      	push	{r3, lr}
20003aee:	f012 0f03 	tst.w	r2, #3
20003af2:	d111      	bne.n	20003b18 <multicore_launch_core1_with_stack+0x2c>
20003af4:	f022 0203 	bic.w	r2, r2, #3
20003af8:	188b      	adds	r3, r1, r2
20003afa:	4a0a      	ldr	r2, [pc, #40]	@ (20003b24 <multicore_launch_core1_with_stack+0x38>)
20003afc:	6892      	ldr	r2, [r2, #8]
20003afe:	f843 0c0c 	str.w	r0, [r3, #-12]
20003b02:	f843 1c08 	str.w	r1, [r3, #-8]
20003b06:	4908      	ldr	r1, [pc, #32]	@ (20003b28 <multicore_launch_core1_with_stack+0x3c>)
20003b08:	f843 1c04 	str.w	r1, [r3, #-4]
20003b0c:	f1a3 010c 	sub.w	r1, r3, #12
20003b10:	4806      	ldr	r0, [pc, #24]	@ (20003b2c <multicore_launch_core1_with_stack+0x40>)
20003b12:	f7ff ffad 	bl	20003a70 <multicore_launch_core1_raw>
20003b16:	bd08      	pop	{r3, pc}
20003b18:	4b05      	ldr	r3, [pc, #20]	@ (20003b30 <multicore_launch_core1_with_stack+0x44>)
20003b1a:	4a06      	ldr	r2, [pc, #24]	@ (20003b34 <multicore_launch_core1_with_stack+0x48>)
20003b1c:	2189      	movs	r1, #137	@ 0x89
20003b1e:	4806      	ldr	r0, [pc, #24]	@ (20003b38 <multicore_launch_core1_with_stack+0x4c>)
20003b20:	f7ff fc32 	bl	20003388 <__assert_func>
20003b24:	e000ed00 	.word	0xe000ed00
20003b28:	20003a37 	.word	0x20003a37
20003b2c:	20003a35 	.word	0x20003a35
20003b30:	200057b4 	.word	0x200057b4
20003b34:	20005a10 	.word	0x20005a10
20003b38:	20005764 	.word	0x20005764

20003b3c <multicore_launch_core1>:
20003b3c:	b508      	push	{r3, lr}
20003b3e:	4a06      	ldr	r2, [pc, #24]	@ (20003b58 <multicore_launch_core1+0x1c>)
20003b40:	4b06      	ldr	r3, [pc, #24]	@ (20003b5c <multicore_launch_core1+0x20>)
20003b42:	429a      	cmp	r2, r3
20003b44:	d305      	bcc.n	20003b52 <multicore_launch_core1+0x16>
20003b46:	4611      	mov	r1, r2
20003b48:	f44f 6200 	mov.w	r2, #2048	@ 0x800
20003b4c:	f7ff ffce 	bl	20003aec <multicore_launch_core1_with_stack>
20003b50:	bd08      	pop	{r3, pc}
20003b52:	f04f 31ff 	mov.w	r1, #4294967295
20003b56:	e7f7      	b.n	20003b48 <multicore_launch_core1+0xc>
20003b58:	20080800 	.word	0x20080800
20003b5c:	20080000 	.word	0x20080000

20003b60 <__aeabi_uldivmod>:
20003b60:	b953      	cbnz	r3, 20003b78 <__aeabi_uldivmod+0x18>
20003b62:	b94a      	cbnz	r2, 20003b78 <__aeabi_uldivmod+0x18>
20003b64:	2900      	cmp	r1, #0
20003b66:	bf08      	it	eq
20003b68:	2800      	cmpeq	r0, #0
20003b6a:	bf1c      	itt	ne
20003b6c:	f04f 31ff 	movne.w	r1, #4294967295
20003b70:	f04f 30ff 	movne.w	r0, #4294967295
20003b74:	f000 b9b2 	b.w	20003edc <__aeabi_idiv0>
20003b78:	f1ad 0c08 	sub.w	ip, sp, #8
20003b7c:	e96d ce04 	strd	ip, lr, [sp, #-16]!
20003b80:	f000 f806 	bl	20003b90 <__udivmoddi4>
20003b84:	f8dd e004 	ldr.w	lr, [sp, #4]
20003b88:	e9dd 2302 	ldrd	r2, r3, [sp, #8]
20003b8c:	b004      	add	sp, #16
20003b8e:	4770      	bx	lr

20003b90 <__udivmoddi4>:
20003b90:	e92d 4ff0 	stmdb	sp!, {r4, r5, r6, r7, r8, r9, sl, fp, lr}
20003b94:	468c      	mov	ip, r1
20003b96:	9e09      	ldr	r6, [sp, #36]	@ 0x24
20003b98:	4604      	mov	r4, r0
20003b9a:	460f      	mov	r7, r1
20003b9c:	2b00      	cmp	r3, #0
20003b9e:	d148      	bne.n	20003c32 <__udivmoddi4+0xa2>
20003ba0:	428a      	cmp	r2, r1
20003ba2:	4615      	mov	r5, r2
20003ba4:	d95e      	bls.n	20003c64 <__udivmoddi4+0xd4>
20003ba6:	fab2 f382 	clz	r3, r2
20003baa:	b13b      	cbz	r3, 20003bbc <__udivmoddi4+0x2c>
20003bac:	f1c3 0220 	rsb	r2, r3, #32
20003bb0:	409f      	lsls	r7, r3
20003bb2:	409d      	lsls	r5, r3
20003bb4:	409c      	lsls	r4, r3
20003bb6:	fa20 f202 	lsr.w	r2, r0, r2
20003bba:	4317      	orrs	r7, r2
20003bbc:	ea4f 4e15 	mov.w	lr, r5, lsr #16
20003bc0:	fa1f fc85 	uxth.w	ip, r5
20003bc4:	0c22      	lsrs	r2, r4, #16
20003bc6:	fbb7 f1fe 	udiv	r1, r7, lr
20003bca:	fb0e 7711 	mls	r7, lr, r1, r7
20003bce:	fb01 f00c 	mul.w	r0, r1, ip
20003bd2:	ea42 4207 	orr.w	r2, r2, r7, lsl #16
20003bd6:	4290      	cmp	r0, r2
20003bd8:	d907      	bls.n	20003bea <__udivmoddi4+0x5a>
20003bda:	18aa      	adds	r2, r5, r2
20003bdc:	f101 37ff 	add.w	r7, r1, #4294967295
20003be0:	d202      	bcs.n	20003be8 <__udivmoddi4+0x58>
20003be2:	4290      	cmp	r0, r2
20003be4:	f200 8158 	bhi.w	20003e98 <__udivmoddi4+0x308>
20003be8:	4639      	mov	r1, r7
20003bea:	1a12      	subs	r2, r2, r0
20003bec:	b2a4      	uxth	r4, r4
20003bee:	fbb2 f0fe 	udiv	r0, r2, lr
20003bf2:	fb0e 2210 	mls	r2, lr, r0, r2
20003bf6:	fb00 fc0c 	mul.w	ip, r0, ip
20003bfa:	ea44 4402 	orr.w	r4, r4, r2, lsl #16
20003bfe:	45a4      	cmp	ip, r4
20003c00:	d90b      	bls.n	20003c1a <__udivmoddi4+0x8a>
20003c02:	192c      	adds	r4, r5, r4
20003c04:	f100 32ff 	add.w	r2, r0, #4294967295
20003c08:	bf2c      	ite	cs
20003c0a:	2701      	movcs	r7, #1
20003c0c:	2700      	movcc	r7, #0
20003c0e:	45a4      	cmp	ip, r4
20003c10:	d902      	bls.n	20003c18 <__udivmoddi4+0x88>
20003c12:	2f00      	cmp	r7, #0
20003c14:	f000 8143 	beq.w	20003e9e <__udivmoddi4+0x30e>
20003c18:	4610      	mov	r0, r2
20003c1a:	ea40 4001 	orr.w	r0, r0, r1, lsl #16
20003c1e:	eba4 040c 	sub.w	r4, r4, ip
20003c22:	2100      	movs	r1, #0
20003c24:	b11e      	cbz	r6, 20003c2e <__udivmoddi4+0x9e>
20003c26:	40dc      	lsrs	r4, r3
20003c28:	2300      	movs	r3, #0
20003c2a:	e9c6 4300 	strd	r4, r3, [r6]
20003c2e:	e8bd 8ff0 	ldmia.w	sp!, {r4, r5, r6, r7, r8, r9, sl, fp, pc}
20003c32:	428b      	cmp	r3, r1
20003c34:	d906      	bls.n	20003c44 <__udivmoddi4+0xb4>
20003c36:	b10e      	cbz	r6, 20003c3c <__udivmoddi4+0xac>
20003c38:	e9c6 0100 	strd	r0, r1, [r6]
20003c3c:	2100      	movs	r1, #0
20003c3e:	4608      	mov	r0, r1
20003c40:	e8bd 8ff0 	ldmia.w	sp!, {r4, r5, r6, r7, r8, r9, sl, fp, pc}
20003c44:	fab3 f183 	clz	r1, r3
20003c48:	2900      	cmp	r1, #0
20003c4a:	d151      	bne.n	20003cf0 <__udivmoddi4+0x160>
20003c4c:	4563      	cmp	r3, ip
20003c4e:	f0c0 8116 	bcc.w	20003e7e <__udivmoddi4+0x2ee>
20003c52:	4282      	cmp	r2, r0
20003c54:	f240 8113 	bls.w	20003e7e <__udivmoddi4+0x2ee>
20003c58:	4608      	mov	r0, r1
20003c5a:	2e00      	cmp	r6, #0
20003c5c:	d0e7      	beq.n	20003c2e <__udivmoddi4+0x9e>
20003c5e:	e9c6 4700 	strd	r4, r7, [r6]
20003c62:	e7e4      	b.n	20003c2e <__udivmoddi4+0x9e>
20003c64:	2a00      	cmp	r2, #0
20003c66:	f000 80af 	beq.w	20003dc8 <__udivmoddi4+0x238>
20003c6a:	fab2 f382 	clz	r3, r2
20003c6e:	2b00      	cmp	r3, #0
20003c70:	f040 80c2 	bne.w	20003df8 <__udivmoddi4+0x268>
20003c74:	1a8a      	subs	r2, r1, r2
20003c76:	ea4f 4e15 	mov.w	lr, r5, lsr #16
20003c7a:	b2af      	uxth	r7, r5
20003c7c:	2101      	movs	r1, #1
20003c7e:	0c20      	lsrs	r0, r4, #16
20003c80:	fbb2 fcfe 	udiv	ip, r2, lr
20003c84:	fb0e 221c 	mls	r2, lr, ip, r2
20003c88:	ea40 4202 	orr.w	r2, r0, r2, lsl #16
20003c8c:	fb07 f00c 	mul.w	r0, r7, ip
20003c90:	4290      	cmp	r0, r2
20003c92:	d90e      	bls.n	20003cb2 <__udivmoddi4+0x122>
20003c94:	18aa      	adds	r2, r5, r2
20003c96:	f10c 38ff 	add.w	r8, ip, #4294967295
20003c9a:	bf2c      	ite	cs
20003c9c:	f04f 0901 	movcs.w	r9, #1
20003ca0:	f04f 0900 	movcc.w	r9, #0
20003ca4:	4290      	cmp	r0, r2
20003ca6:	d903      	bls.n	20003cb0 <__udivmoddi4+0x120>
20003ca8:	f1b9 0f00 	cmp.w	r9, #0
20003cac:	f000 80f0 	beq.w	20003e90 <__udivmoddi4+0x300>
20003cb0:	46c4      	mov	ip, r8
20003cb2:	1a12      	subs	r2, r2, r0
20003cb4:	b2a4      	uxth	r4, r4
20003cb6:	fbb2 f0fe 	udiv	r0, r2, lr
20003cba:	fb0e 2210 	mls	r2, lr, r0, r2
20003cbe:	fb00 f707 	mul.w	r7, r0, r7
20003cc2:	ea44 4402 	orr.w	r4, r4, r2, lsl #16
20003cc6:	42a7      	cmp	r7, r4
20003cc8:	d90e      	bls.n	20003ce8 <__udivmoddi4+0x158>
20003cca:	192c      	adds	r4, r5, r4
20003ccc:	f100 32ff 	add.w	r2, r0, #4294967295
20003cd0:	bf2c      	ite	cs
20003cd2:	f04f 0e01 	movcs.w	lr, #1
20003cd6:	f04f 0e00 	movcc.w	lr, #0
20003cda:	42a7      	cmp	r7, r4
20003cdc:	d903      	bls.n	20003ce6 <__udivmoddi4+0x156>
20003cde:	f1be 0f00 	cmp.w	lr, #0
20003ce2:	f000 80d2 	beq.w	20003e8a <__udivmoddi4+0x2fa>
20003ce6:	4610      	mov	r0, r2
20003ce8:	1be4      	subs	r4, r4, r7
20003cea:	ea40 400c 	orr.w	r0, r0, ip, lsl #16
20003cee:	e799      	b.n	20003c24 <__udivmoddi4+0x94>
20003cf0:	f1c1 0520 	rsb	r5, r1, #32
20003cf4:	408b      	lsls	r3, r1
20003cf6:	fa0c f401 	lsl.w	r4, ip, r1
20003cfa:	fa00 f901 	lsl.w	r9, r0, r1
20003cfe:	fa22 f705 	lsr.w	r7, r2, r5
20003d02:	fa2c fc05 	lsr.w	ip, ip, r5
20003d06:	408a      	lsls	r2, r1
20003d08:	431f      	orrs	r7, r3
20003d0a:	fa20 f305 	lsr.w	r3, r0, r5
20003d0e:	0c38      	lsrs	r0, r7, #16
20003d10:	4323      	orrs	r3, r4
20003d12:	fa1f fe87 	uxth.w	lr, r7
20003d16:	0c1c      	lsrs	r4, r3, #16
20003d18:	fbbc f8f0 	udiv	r8, ip, r0
20003d1c:	fb00 cc18 	mls	ip, r0, r8, ip
20003d20:	ea44 440c 	orr.w	r4, r4, ip, lsl #16
20003d24:	fb08 fc0e 	mul.w	ip, r8, lr
20003d28:	45a4      	cmp	ip, r4
20003d2a:	d90e      	bls.n	20003d4a <__udivmoddi4+0x1ba>
20003d2c:	193c      	adds	r4, r7, r4
20003d2e:	f108 3aff 	add.w	sl, r8, #4294967295
20003d32:	bf2c      	ite	cs
20003d34:	f04f 0b01 	movcs.w	fp, #1
20003d38:	f04f 0b00 	movcc.w	fp, #0
20003d3c:	45a4      	cmp	ip, r4
20003d3e:	d903      	bls.n	20003d48 <__udivmoddi4+0x1b8>
20003d40:	f1bb 0f00 	cmp.w	fp, #0
20003d44:	f000 80b8 	beq.w	20003eb8 <__udivmoddi4+0x328>
20003d48:	46d0      	mov	r8, sl
20003d4a:	eba4 040c 	sub.w	r4, r4, ip
20003d4e:	fa1f fc83 	uxth.w	ip, r3
20003d52:	fbb4 f3f0 	udiv	r3, r4, r0
20003d56:	fb00 4413 	mls	r4, r0, r3, r4
20003d5a:	fb03 fe0e 	mul.w	lr, r3, lr
20003d5e:	ea4c 4404 	orr.w	r4, ip, r4, lsl #16
20003d62:	45a6      	cmp	lr, r4
20003d64:	d90e      	bls.n	20003d84 <__udivmoddi4+0x1f4>
20003d66:	193c      	adds	r4, r7, r4
20003d68:	f103 30ff 	add.w	r0, r3, #4294967295
20003d6c:	bf2c      	ite	cs
20003d6e:	f04f 0c01 	movcs.w	ip, #1
20003d72:	f04f 0c00 	movcc.w	ip, #0
20003d76:	45a6      	cmp	lr, r4
20003d78:	d903      	bls.n	20003d82 <__udivmoddi4+0x1f2>
20003d7a:	f1bc 0f00 	cmp.w	ip, #0
20003d7e:	f000 809f 	beq.w	20003ec0 <__udivmoddi4+0x330>
20003d82:	4603      	mov	r3, r0
20003d84:	ea43 4008 	orr.w	r0, r3, r8, lsl #16
20003d88:	eba4 040e 	sub.w	r4, r4, lr
20003d8c:	fba0 ec02 	umull	lr, ip, r0, r2
20003d90:	4564      	cmp	r4, ip
20003d92:	4673      	mov	r3, lr
20003d94:	46e0      	mov	r8, ip
20003d96:	d302      	bcc.n	20003d9e <__udivmoddi4+0x20e>
20003d98:	d107      	bne.n	20003daa <__udivmoddi4+0x21a>
20003d9a:	45f1      	cmp	r9, lr
20003d9c:	d205      	bcs.n	20003daa <__udivmoddi4+0x21a>
20003d9e:	ebbe 0302 	subs.w	r3, lr, r2
20003da2:	eb6c 0c07 	sbc.w	ip, ip, r7
20003da6:	3801      	subs	r0, #1
20003da8:	46e0      	mov	r8, ip
20003daa:	b15e      	cbz	r6, 20003dc4 <__udivmoddi4+0x234>
20003dac:	ebb9 0203 	subs.w	r2, r9, r3
20003db0:	eb64 0408 	sbc.w	r4, r4, r8
20003db4:	fa04 f505 	lsl.w	r5, r4, r5
20003db8:	fa22 f301 	lsr.w	r3, r2, r1
20003dbc:	40cc      	lsrs	r4, r1
20003dbe:	431d      	orrs	r5, r3
20003dc0:	e9c6 5400 	strd	r5, r4, [r6]
20003dc4:	2100      	movs	r1, #0
20003dc6:	e732      	b.n	20003c2e <__udivmoddi4+0x9e>
20003dc8:	0842      	lsrs	r2, r0, #1
20003dca:	462f      	mov	r7, r5
20003dcc:	084b      	lsrs	r3, r1, #1
20003dce:	46ac      	mov	ip, r5
20003dd0:	ea42 72c1 	orr.w	r2, r2, r1, lsl #31
20003dd4:	46ae      	mov	lr, r5
20003dd6:	07c4      	lsls	r4, r0, #31
20003dd8:	0c11      	lsrs	r1, r2, #16
20003dda:	b292      	uxth	r2, r2
20003ddc:	ea41 4103 	orr.w	r1, r1, r3, lsl #16
20003de0:	ea42 4201 	orr.w	r2, r2, r1, lsl #16
20003de4:	fbb1 f1f5 	udiv	r1, r1, r5
20003de8:	fbb3 f0f5 	udiv	r0, r3, r5
20003dec:	231f      	movs	r3, #31
20003dee:	eba2 020c 	sub.w	r2, r2, ip
20003df2:	ea41 4100 	orr.w	r1, r1, r0, lsl #16
20003df6:	e742      	b.n	20003c7e <__udivmoddi4+0xee>
20003df8:	409d      	lsls	r5, r3
20003dfa:	f1c3 0220 	rsb	r2, r3, #32
20003dfe:	4099      	lsls	r1, r3
20003e00:	409c      	lsls	r4, r3
20003e02:	fa2c fc02 	lsr.w	ip, ip, r2
20003e06:	ea4f 4e15 	mov.w	lr, r5, lsr #16
20003e0a:	fa20 f202 	lsr.w	r2, r0, r2
20003e0e:	b2af      	uxth	r7, r5
20003e10:	fbbc f8fe 	udiv	r8, ip, lr
20003e14:	430a      	orrs	r2, r1
20003e16:	fb0e cc18 	mls	ip, lr, r8, ip
20003e1a:	0c11      	lsrs	r1, r2, #16
20003e1c:	ea41 410c 	orr.w	r1, r1, ip, lsl #16
20003e20:	fb08 fc07 	mul.w	ip, r8, r7
20003e24:	458c      	cmp	ip, r1
20003e26:	d950      	bls.n	20003eca <__udivmoddi4+0x33a>
20003e28:	1869      	adds	r1, r5, r1
20003e2a:	f108 30ff 	add.w	r0, r8, #4294967295
20003e2e:	bf2c      	ite	cs
20003e30:	f04f 0901 	movcs.w	r9, #1
20003e34:	f04f 0900 	movcc.w	r9, #0
20003e38:	458c      	cmp	ip, r1
20003e3a:	d902      	bls.n	20003e42 <__udivmoddi4+0x2b2>
20003e3c:	f1b9 0f00 	cmp.w	r9, #0
20003e40:	d030      	beq.n	20003ea4 <__udivmoddi4+0x314>
20003e42:	eba1 010c 	sub.w	r1, r1, ip
20003e46:	fbb1 f8fe 	udiv	r8, r1, lr
20003e4a:	fb08 fc07 	mul.w	ip, r8, r7
20003e4e:	fb0e 1118 	mls	r1, lr, r8, r1
20003e52:	b292      	uxth	r2, r2
20003e54:	ea42 4201 	orr.w	r2, r2, r1, lsl #16
20003e58:	4562      	cmp	r2, ip
20003e5a:	d234      	bcs.n	20003ec6 <__udivmoddi4+0x336>
20003e5c:	18aa      	adds	r2, r5, r2
20003e5e:	f108 31ff 	add.w	r1, r8, #4294967295
20003e62:	bf2c      	ite	cs
20003e64:	f04f 0901 	movcs.w	r9, #1
20003e68:	f04f 0900 	movcc.w	r9, #0
20003e6c:	4562      	cmp	r2, ip
20003e6e:	d2be      	bcs.n	20003dee <__udivmoddi4+0x25e>
20003e70:	f1b9 0f00 	cmp.w	r9, #0
20003e74:	d1bb      	bne.n	20003dee <__udivmoddi4+0x25e>
20003e76:	f1a8 0102 	sub.w	r1, r8, #2
20003e7a:	442a      	add	r2, r5
20003e7c:	e7b7      	b.n	20003dee <__udivmoddi4+0x25e>
20003e7e:	1a84      	subs	r4, r0, r2
20003e80:	eb6c 0203 	sbc.w	r2, ip, r3
20003e84:	2001      	movs	r0, #1
20003e86:	4617      	mov	r7, r2
20003e88:	e6e7      	b.n	20003c5a <__udivmoddi4+0xca>
20003e8a:	442c      	add	r4, r5
20003e8c:	3802      	subs	r0, #2
20003e8e:	e72b      	b.n	20003ce8 <__udivmoddi4+0x158>
20003e90:	f1ac 0c02 	sub.w	ip, ip, #2
20003e94:	442a      	add	r2, r5
20003e96:	e70c      	b.n	20003cb2 <__udivmoddi4+0x122>
20003e98:	3902      	subs	r1, #2
20003e9a:	442a      	add	r2, r5
20003e9c:	e6a5      	b.n	20003bea <__udivmoddi4+0x5a>
20003e9e:	442c      	add	r4, r5
20003ea0:	3802      	subs	r0, #2
20003ea2:	e6ba      	b.n	20003c1a <__udivmoddi4+0x8a>
20003ea4:	eba5 0c0c 	sub.w	ip, r5, ip
20003ea8:	f1a8 0002 	sub.w	r0, r8, #2
20003eac:	4461      	add	r1, ip
20003eae:	fbb1 f8fe 	udiv	r8, r1, lr
20003eb2:	fb08 fc07 	mul.w	ip, r8, r7
20003eb6:	e7ca      	b.n	20003e4e <__udivmoddi4+0x2be>
20003eb8:	f1a8 0802 	sub.w	r8, r8, #2
20003ebc:	443c      	add	r4, r7
20003ebe:	e744      	b.n	20003d4a <__udivmoddi4+0x1ba>
20003ec0:	3b02      	subs	r3, #2
20003ec2:	443c      	add	r4, r7
20003ec4:	e75e      	b.n	20003d84 <__udivmoddi4+0x1f4>
20003ec6:	4641      	mov	r1, r8
20003ec8:	e791      	b.n	20003dee <__udivmoddi4+0x25e>
20003eca:	eba1 010c 	sub.w	r1, r1, ip
20003ece:	4640      	mov	r0, r8
20003ed0:	fbb1 f8fe 	udiv	r8, r1, lr
20003ed4:	fb08 fc07 	mul.w	ip, r8, r7
20003ed8:	e7b9      	b.n	20003e4e <__udivmoddi4+0x2be>
20003eda:	bf00      	nop

20003edc <__aeabi_idiv0>:
20003edc:	4770      	bx	lr
20003ede:	bf00      	nop

20003ee0 <memset>:
20003ee0:	0783      	lsls	r3, r0, #30
20003ee2:	b530      	push	{r4, r5, lr}
20003ee4:	d046      	beq.n	20003f74 <memset+0x94>
20003ee6:	1884      	adds	r4, r0, r2
20003ee8:	4684      	mov	ip, r0
20003eea:	e004      	b.n	20003ef6 <memset+0x16>
20003eec:	f803 1b01 	strb.w	r1, [r3], #1
20003ef0:	079d      	lsls	r5, r3, #30
20003ef2:	d004      	beq.n	20003efe <memset+0x1e>
20003ef4:	469c      	mov	ip, r3
20003ef6:	45a4      	cmp	ip, r4
20003ef8:	4663      	mov	r3, ip
20003efa:	d1f7      	bne.n	20003eec <memset+0xc>
20003efc:	bd30      	pop	{r4, r5, pc}
20003efe:	3a01      	subs	r2, #1
20003f00:	4402      	add	r2, r0
20003f02:	eba2 020c 	sub.w	r2, r2, ip
20003f06:	2a03      	cmp	r2, #3
20003f08:	d929      	bls.n	20003f5e <memset+0x7e>
20003f0a:	b2cc      	uxtb	r4, r1
20003f0c:	2a0f      	cmp	r2, #15
20003f0e:	eb04 2404 	add.w	r4, r4, r4, lsl #8
20003f12:	eb04 4404 	add.w	r4, r4, r4, lsl #16
20003f16:	d92f      	bls.n	20003f78 <memset+0x98>
20003f18:	f1a2 0c10 	sub.w	ip, r2, #16
20003f1c:	f103 0510 	add.w	r5, r3, #16
20003f20:	f02c 0c0f 	bic.w	ip, ip, #15
20003f24:	44ac      	add	ip, r5
20003f26:	e9c3 4400 	strd	r4, r4, [r3]
20003f2a:	e9c3 4402 	strd	r4, r4, [r3, #8]
20003f2e:	3310      	adds	r3, #16
20003f30:	4563      	cmp	r3, ip
20003f32:	d1f8      	bne.n	20003f26 <memset+0x46>
20003f34:	f012 0f0c 	tst.w	r2, #12
20003f38:	f002 0e0f 	and.w	lr, r2, #15
20003f3c:	d018      	beq.n	20003f70 <memset+0x90>
20003f3e:	f02e 0c03 	bic.w	ip, lr, #3
20003f42:	f1ae 0504 	sub.w	r5, lr, #4
20003f46:	461a      	mov	r2, r3
20003f48:	449c      	add	ip, r3
20003f4a:	f842 4b04 	str.w	r4, [r2], #4
20003f4e:	4562      	cmp	r2, ip
20003f50:	d1fb      	bne.n	20003f4a <memset+0x6a>
20003f52:	f025 0403 	bic.w	r4, r5, #3
20003f56:	3304      	adds	r3, #4
20003f58:	f00e 0203 	and.w	r2, lr, #3
20003f5c:	4423      	add	r3, r4
20003f5e:	2a00      	cmp	r2, #0
20003f60:	d0cc      	beq.n	20003efc <memset+0x1c>
20003f62:	b2c9      	uxtb	r1, r1
20003f64:	441a      	add	r2, r3
20003f66:	f803 1b01 	strb.w	r1, [r3], #1
20003f6a:	4293      	cmp	r3, r2
20003f6c:	d1fb      	bne.n	20003f66 <memset+0x86>
20003f6e:	bd30      	pop	{r4, r5, pc}
20003f70:	4672      	mov	r2, lr
20003f72:	e7f4      	b.n	20003f5e <memset+0x7e>
20003f74:	4603      	mov	r3, r0
20003f76:	e7c6      	b.n	20003f06 <memset+0x26>
20003f78:	4696      	mov	lr, r2
20003f7a:	e7e0      	b.n	20003f3e <memset+0x5e>

20003f7c <memcpy>:
20003f7c:	4684      	mov	ip, r0
20003f7e:	ea41 0300 	orr.w	r3, r1, r0
20003f82:	f013 0303 	ands.w	r3, r3, #3
20003f86:	d149      	bne.n	2000401c <memcpy+0xa0>
20003f88:	3a40      	subs	r2, #64	@ 0x40
20003f8a:	d323      	bcc.n	20003fd4 <memcpy+0x58>
20003f8c:	680b      	ldr	r3, [r1, #0]
20003f8e:	6003      	str	r3, [r0, #0]
20003f90:	684b      	ldr	r3, [r1, #4]
20003f92:	6043      	str	r3, [r0, #4]
20003f94:	688b      	ldr	r3, [r1, #8]
20003f96:	6083      	str	r3, [r0, #8]
20003f98:	68cb      	ldr	r3, [r1, #12]
20003f9a:	60c3      	str	r3, [r0, #12]
20003f9c:	690b      	ldr	r3, [r1, #16]
20003f9e:	6103      	str	r3, [r0, #16]
20003fa0:	694b      	ldr	r3, [r1, #20]
20003fa2:	6143      	str	r3, [r0, #20]
20003fa4:	698b      	ldr	r3, [r1, #24]
20003fa6:	6183      	str	r3, [r0, #24]
20003fa8:	69cb      	ldr	r3, [r1, #28]
20003faa:	61c3      	str	r3, [r0, #28]
20003fac:	6a0b      	ldr	r3, [r1, #32]
20003fae:	6203      	str	r3, [r0, #32]
20003fb0:	6a4b      	ldr	r3, [r1, #36]	@ 0x24
20003fb2:	6243      	str	r3, [r0, #36]	@ 0x24
20003fb4:	6a8b      	ldr	r3, [r1, #40]	@ 0x28
20003fb6:	6283      	str	r3, [r0, #40]	@ 0x28
20003fb8:	6acb      	ldr	r3, [r1, #44]	@ 0x2c
20003fba:	62c3      	str	r3, [r0, #44]	@ 0x2c
20003fbc:	6b0b      	ldr	r3, [r1, #48]	@ 0x30
20003fbe:	6303      	str	r3, [r0, #48]	@ 0x30
20003fc0:	6b4b      	ldr	r3, [r1, #52]	@ 0x34
20003fc2:	6343      	str	r3, [r0, #52]	@ 0x34
20003fc4:	6b8b      	ldr	r3, [r1, #56]	@ 0x38
20003fc6:	6383      	str	r3, [r0, #56]	@ 0x38
20003fc8:	6bcb      	ldr	r3, [r1, #60]	@ 0x3c
20003fca:	63c3      	str	r3, [r0, #60]	@ 0x3c
20003fcc:	3040      	adds	r0, #64	@ 0x40
20003fce:	3140      	adds	r1, #64	@ 0x40
20003fd0:	3a40      	subs	r2, #64	@ 0x40
20003fd2:	d2db      	bcs.n	20003f8c <memcpy+0x10>
20003fd4:	3230      	adds	r2, #48	@ 0x30
20003fd6:	d30b      	bcc.n	20003ff0 <memcpy+0x74>
20003fd8:	680b      	ldr	r3, [r1, #0]
20003fda:	6003      	str	r3, [r0, #0]
20003fdc:	684b      	ldr	r3, [r1, #4]
20003fde:	6043      	str	r3, [r0, #4]
20003fe0:	688b      	ldr	r3, [r1, #8]
20003fe2:	6083      	str	r3, [r0, #8]
20003fe4:	68cb      	ldr	r3, [r1, #12]
20003fe6:	60c3      	str	r3, [r0, #12]
20003fe8:	3010      	adds	r0, #16
20003fea:	3110      	adds	r1, #16
20003fec:	3a10      	subs	r2, #16
20003fee:	d2f3      	bcs.n	20003fd8 <memcpy+0x5c>
20003ff0:	320c      	adds	r2, #12
20003ff2:	d305      	bcc.n	20004000 <memcpy+0x84>
20003ff4:	f851 3b04 	ldr.w	r3, [r1], #4
20003ff8:	f840 3b04 	str.w	r3, [r0], #4
20003ffc:	3a04      	subs	r2, #4
20003ffe:	d2f9      	bcs.n	20003ff4 <memcpy+0x78>
20004000:	3204      	adds	r2, #4
20004002:	d008      	beq.n	20004016 <memcpy+0x9a>
20004004:	07d2      	lsls	r2, r2, #31
20004006:	bf1c      	itt	ne
20004008:	f811 3b01 	ldrbne.w	r3, [r1], #1
2000400c:	f800 3b01 	strbne.w	r3, [r0], #1
20004010:	d301      	bcc.n	20004016 <memcpy+0x9a>
20004012:	880b      	ldrh	r3, [r1, #0]
20004014:	8003      	strh	r3, [r0, #0]
20004016:	4660      	mov	r0, ip
20004018:	4770      	bx	lr
2000401a:	bf00      	nop
2000401c:	2a08      	cmp	r2, #8
2000401e:	d313      	bcc.n	20004048 <memcpy+0xcc>
20004020:	078b      	lsls	r3, r1, #30
20004022:	d0b1      	beq.n	20003f88 <memcpy+0xc>
20004024:	f010 0303 	ands.w	r3, r0, #3
20004028:	d0ae      	beq.n	20003f88 <memcpy+0xc>
2000402a:	f1c3 0304 	rsb	r3, r3, #4
2000402e:	1ad2      	subs	r2, r2, r3
20004030:	07db      	lsls	r3, r3, #31
20004032:	bf1c      	itt	ne
20004034:	f811 3b01 	ldrbne.w	r3, [r1], #1
20004038:	f800 3b01 	strbne.w	r3, [r0], #1
2000403c:	d3a4      	bcc.n	20003f88 <memcpy+0xc>
2000403e:	f831 3b02 	ldrh.w	r3, [r1], #2
20004042:	f820 3b02 	strh.w	r3, [r0], #2
20004046:	e79f      	b.n	20003f88 <memcpy+0xc>
20004048:	3a04      	subs	r2, #4
2000404a:	d3d9      	bcc.n	20004000 <memcpy+0x84>
2000404c:	3a01      	subs	r2, #1
2000404e:	f811 3b01 	ldrb.w	r3, [r1], #1
20004052:	f800 3b01 	strb.w	r3, [r0], #1
20004056:	d2f9      	bcs.n	2000404c <memcpy+0xd0>
20004058:	780b      	ldrb	r3, [r1, #0]
2000405a:	7003      	strb	r3, [r0, #0]
2000405c:	784b      	ldrb	r3, [r1, #1]
2000405e:	7043      	strb	r3, [r0, #1]
20004060:	788b      	ldrb	r3, [r1, #2]
20004062:	7083      	strb	r3, [r0, #2]
20004064:	4660      	mov	r0, ip
20004066:	4770      	bx	lr

20004068 <strlen>:
20004068:	f020 0103 	bic.w	r1, r0, #3
2000406c:	f010 0003 	ands.w	r0, r0, #3
20004070:	f1c0 0000 	rsb	r0, r0, #0
20004074:	f851 3b04 	ldr.w	r3, [r1], #4
20004078:	f100 0c04 	add.w	ip, r0, #4
2000407c:	ea4f 0ccc 	mov.w	ip, ip, lsl #3
20004080:	f06f 0200 	mvn.w	r2, #0
20004084:	bf1c      	itt	ne
20004086:	fa22 f20c 	lsrne.w	r2, r2, ip
2000408a:	4313      	orrne	r3, r2
2000408c:	f04f 0c01 	mov.w	ip, #1
20004090:	ea4c 2c0c 	orr.w	ip, ip, ip, lsl #8
20004094:	ea4c 4c0c 	orr.w	ip, ip, ip, lsl #16
20004098:	eba3 020c 	sub.w	r2, r3, ip
2000409c:	ea22 0203 	bic.w	r2, r2, r3
200040a0:	ea12 12cc 	ands.w	r2, r2, ip, lsl #7
200040a4:	bf04      	itt	eq
200040a6:	f851 3b04 	ldreq.w	r3, [r1], #4
200040aa:	3004      	addeq	r0, #4
200040ac:	d0f4      	beq.n	20004098 <strlen+0x30>
200040ae:	f1c2 0100 	rsb	r1, r2, #0
200040b2:	ea02 0201 	and.w	r2, r2, r1
200040b6:	fab2 f282 	clz	r2, r2
200040ba:	f1c2 021f 	rsb	r2, r2, #31
200040be:	eb00 00d2 	add.w	r0, r0, r2, lsr #3
200040c2:	4770      	bx	lr

200040c4 <_fini>:
200040c4:	b5f8      	push	{r3, r4, r5, r6, r7, lr}
200040c6:	bf00      	nop

Disassembly of section .data:

200040c8 <pio_video_irq_handler>:
200040c8:	4b21      	ldr	r3, [pc, #132]	@ (20004150 <pio_video_irq_handler+0x88>)
200040ca:	b4f0      	push	{r4, r5, r6, r7}
200040cc:	681b      	ldr	r3, [r3, #0]
200040ce:	6b1a      	ldr	r2, [r3, #48]	@ 0x30
200040d0:	07d1      	lsls	r1, r2, #31
200040d2:	d52f      	bpl.n	20004134 <pio_video_irq_handler+0x6c>
200040d4:	2501      	movs	r5, #1
200040d6:	4c1f      	ldr	r4, [pc, #124]	@ (20004154 <pio_video_irq_handler+0x8c>)
200040d8:	491f      	ldr	r1, [pc, #124]	@ (20004158 <pio_video_irq_handler+0x90>)
200040da:	4a20      	ldr	r2, [pc, #128]	@ (2000415c <pio_video_irq_handler+0x94>)
200040dc:	631d      	str	r5, [r3, #48]	@ 0x30
200040de:	7025      	strb	r5, [r4, #0]
200040e0:	680c      	ldr	r4, [r1, #0]
200040e2:	f8d2 c000 	ldr.w	ip, [r2]
200040e6:	4f1e      	ldr	r7, [pc, #120]	@ (20004160 <pio_video_irq_handler+0x98>)
200040e8:	ebb4 040c 	subs.w	r4, r4, ip
200040ec:	bf18      	it	ne
200040ee:	2401      	movne	r4, #1
200040f0:	703c      	strb	r4, [r7, #0]
200040f2:	680c      	ldr	r4, [r1, #0]
200040f4:	481b      	ldr	r0, [pc, #108]	@ (20004164 <pio_video_irq_handler+0x9c>)
200040f6:	f5b4 7f96 	cmp.w	r4, #300	@ 0x12c
200040fa:	bf94      	ite	ls
200040fc:	f04f 0c00 	movls.w	ip, #0
20004100:	f04f 0c01 	movhi.w	ip, #1
20004104:	4e18      	ldr	r6, [pc, #96]	@ (20004168 <pio_video_irq_handler+0xa0>)
20004106:	f880 c000 	strb.w	ip, [r0]
2000410a:	7834      	ldrb	r4, [r6, #0]
2000410c:	f890 c000 	ldrb.w	ip, [r0]
20004110:	b2e4      	uxtb	r4, r4
20004112:	45ac      	cmp	ip, r5
20004114:	d019      	beq.n	2000414a <pio_video_irq_handler+0x82>
20004116:	b1c4      	cbz	r4, 2000414a <pio_video_irq_handler+0x82>
20004118:	4c14      	ldr	r4, [pc, #80]	@ (2000416c <pio_video_irq_handler+0xa4>)
2000411a:	7025      	strb	r5, [r4, #0]
2000411c:	7800      	ldrb	r0, [r0, #0]
2000411e:	4c14      	ldr	r4, [pc, #80]	@ (20004170 <pio_video_irq_handler+0xa8>)
20004120:	b2c0      	uxtb	r0, r0
20004122:	7030      	strb	r0, [r6, #0]
20004124:	6810      	ldr	r0, [r2, #0]
20004126:	f000 0001 	and.w	r0, r0, #1
2000412a:	7020      	strb	r0, [r4, #0]
2000412c:	2000      	movs	r0, #0
2000412e:	6814      	ldr	r4, [r2, #0]
20004130:	600c      	str	r4, [r1, #0]
20004132:	6010      	str	r0, [r2, #0]
20004134:	6b1a      	ldr	r2, [r3, #48]	@ 0x30
20004136:	0792      	lsls	r2, r2, #30
20004138:	d505      	bpl.n	20004146 <pio_video_irq_handler+0x7e>
2000413a:	2102      	movs	r1, #2
2000413c:	4a07      	ldr	r2, [pc, #28]	@ (2000415c <pio_video_irq_handler+0x94>)
2000413e:	6319      	str	r1, [r3, #48]	@ 0x30
20004140:	6813      	ldr	r3, [r2, #0]
20004142:	3301      	adds	r3, #1
20004144:	6013      	str	r3, [r2, #0]
20004146:	bcf0      	pop	{r4, r5, r6, r7}
20004148:	4770      	bx	lr
2000414a:	2500      	movs	r5, #0
2000414c:	e7e4      	b.n	20004118 <pio_video_irq_handler+0x50>
2000414e:	bf00      	nop
20004150:	20005a44 	.word	0x20005a44
20004154:	20070049 	.word	0x20070049
20004158:	2006c930 	.word	0x2006c930
2000415c:	2006ced4 	.word	0x2006ced4
20004160:	20070046 	.word	0x20070046
20004164:	20005a3f 	.word	0x20005a3f
20004168:	20005a3c 	.word	0x20005a3c
2000416c:	20070045 	.word	0x20070045
20004170:	20005a3d 	.word	0x20005a3d

20004174 <pio_rga_irq_handler>:
20004174:	4b29      	ldr	r3, [pc, #164]	@ (2000421c <pio_rga_irq_handler+0xa8>)
20004176:	b410      	push	{r4}
20004178:	681b      	ldr	r3, [r3, #0]
2000417a:	6b1a      	ldr	r2, [r3, #48]	@ 0x30
2000417c:	0791      	lsls	r1, r2, #30
2000417e:	d525      	bpl.n	200041cc <pio_rga_irq_handler+0x58>
20004180:	2202      	movs	r2, #2
20004182:	4927      	ldr	r1, [pc, #156]	@ (20004220 <pio_rga_irq_handler+0xac>)
20004184:	631a      	str	r2, [r3, #48]	@ 0x30
20004186:	f8b1 0080 	ldrh.w	r0, [r1, #128]	@ 0x80
2000418a:	f8b1 2082 	ldrh.w	r2, [r1, #130]	@ 0x82
2000418e:	b280      	uxth	r0, r0
20004190:	b292      	uxth	r2, r2
20004192:	4290      	cmp	r0, r2
20004194:	d03f      	beq.n	20004216 <pio_rga_irq_handler+0xa2>
20004196:	f8b1 2082 	ldrh.w	r2, [r1, #130]	@ 0x82
2000419a:	b292      	uxth	r2, r2
2000419c:	f831 0012 	ldrh.w	r0, [r1, r2, lsl #1]
200041a0:	f8b1 2082 	ldrh.w	r2, [r1, #130]	@ 0x82
200041a4:	b280      	uxth	r0, r0
200041a6:	b292      	uxth	r2, r2
200041a8:	3201      	adds	r2, #1
200041aa:	f002 023f 	and.w	r2, r2, #63	@ 0x3f
200041ae:	f8a1 2082 	strh.w	r2, [r1, #130]	@ 0x82
200041b2:	4a1c      	ldr	r2, [pc, #112]	@ (20004224 <pio_rga_irq_handler+0xb0>)
200041b4:	685c      	ldr	r4, [r3, #4]
200041b6:	6811      	ldr	r1, [r2, #0]
200041b8:	2201      	movs	r2, #1
200041ba:	f101 0c10 	add.w	ip, r1, #16
200041be:	fa02 f20c 	lsl.w	r2, r2, ip
200041c2:	4222      	tst	r2, r4
200041c4:	bf04      	itt	eq
200041c6:	3104      	addeq	r1, #4
200041c8:	f843 0021 	streq.w	r0, [r3, r1, lsl #2]
200041cc:	6b1a      	ldr	r2, [r3, #48]	@ 0x30
200041ce:	07d2      	lsls	r2, r2, #31
200041d0:	d51e      	bpl.n	20004210 <pio_rga_irq_handler+0x9c>
200041d2:	2201      	movs	r2, #1
200041d4:	4914      	ldr	r1, [pc, #80]	@ (20004228 <pio_rga_irq_handler+0xb4>)
200041d6:	631a      	str	r2, [r3, #48]	@ 0x30
200041d8:	6809      	ldr	r1, [r1, #0]
200041da:	6858      	ldr	r0, [r3, #4]
200041dc:	3108      	adds	r1, #8
200041de:	408a      	lsls	r2, r1
200041e0:	4202      	tst	r2, r0
200041e2:	d115      	bne.n	20004210 <pio_rga_irq_handler+0x9c>
200041e4:	4a11      	ldr	r2, [pc, #68]	@ (2000422c <pio_rga_irq_handler+0xb8>)
200041e6:	f853 0021 	ldr.w	r0, [r3, r1, lsl #2]
200041ea:	f8b2 3080 	ldrh.w	r3, [r2, #128]	@ 0x80
200041ee:	f8b2 1082 	ldrh.w	r1, [r2, #130]	@ 0x82
200041f2:	b29b      	uxth	r3, r3
200041f4:	3301      	adds	r3, #1
200041f6:	f003 033f 	and.w	r3, r3, #63	@ 0x3f
200041fa:	b289      	uxth	r1, r1
200041fc:	428b      	cmp	r3, r1
200041fe:	b280      	uxth	r0, r0
20004200:	d006      	beq.n	20004210 <pio_rga_irq_handler+0x9c>
20004202:	f8b2 1080 	ldrh.w	r1, [r2, #128]	@ 0x80
20004206:	b289      	uxth	r1, r1
20004208:	f822 0011 	strh.w	r0, [r2, r1, lsl #1]
2000420c:	f8a2 3080 	strh.w	r3, [r2, #128]	@ 0x80
20004210:	f85d 4b04 	ldr.w	r4, [sp], #4
20004214:	4770      	bx	lr
20004216:	2000      	movs	r0, #0
20004218:	e7cb      	b.n	200041b2 <pio_rga_irq_handler+0x3e>
2000421a:	bf00      	nop
2000421c:	20005a40 	.word	0x20005a40
20004220:	2006ef98 	.word	0x2006ef98
20004224:	20070038 	.word	0x20070038
20004228:	20070034 	.word	0x20070034
2000422c:	2006ef14 	.word	0x2006ef14

20004230 <get_pio_line>:
20004230:	2101      	movs	r1, #1
20004232:	e92d 43f0 	stmdb	sp!, {r4, r5, r6, r7, r8, r9, lr}
20004236:	4604      	mov	r4, r0
20004238:	4a31      	ldr	r2, [pc, #196]	@ (20004300 <get_pio_line+0xd0>)
2000423a:	4b32      	ldr	r3, [pc, #200]	@ (20004304 <get_pio_line+0xd4>)
2000423c:	6815      	ldr	r5, [r2, #0]
2000423e:	681a      	ldr	r2, [r3, #0]
20004240:	f105 0310 	add.w	r3, r5, #16
20004244:	4099      	lsls	r1, r3
20004246:	6853      	ldr	r3, [r2, #4]
20004248:	420b      	tst	r3, r1
2000424a:	d1fc      	bne.n	20004246 <get_pio_line+0x16>
2000424c:	f240 138b 	movw	r3, #395	@ 0x18b
20004250:	2101      	movs	r1, #1
20004252:	eb02 0e85 	add.w	lr, r2, r5, lsl #2
20004256:	f8ce 3010 	str.w	r3, [lr, #16]
2000425a:	fa01 f905 	lsl.w	r9, r1, r5
2000425e:	eb05 0345 	add.w	r3, r5, r5, lsl #1
20004262:	3508      	adds	r5, #8
20004264:	40a9      	lsls	r1, r5
20004266:	6815      	ldr	r5, [r2, #0]
20004268:	f04f 4800 	mov.w	r8, #2147483648	@ 0x80000000
2000426c:	ea45 0509 	orr.w	r5, r5, r9
20004270:	6015      	str	r5, [r2, #0]
20004272:	f248 0580 	movw	r5, #32896	@ 0x8080
20004276:	f24a 0c27 	movw	ip, #40999	@ 0xa027
2000427a:	ea6f 0709 	mvn.w	r7, r9
2000427e:	2048      	movs	r0, #72	@ 0x48
20004280:	00de      	lsls	r6, r3, #3
20004282:	36d0      	adds	r6, #208	@ 0xd0
20004284:	eb02 03c3 	add.w	r3, r2, r3, lsl #3
20004288:	4416      	add	r6, r2
2000428a:	f8c3 50d8 	str.w	r5, [r3, #216]	@ 0xd8
2000428e:	f506 5500 	add.w	r5, r6, #8192	@ 0x2000
20004292:	f8c5 8000 	str.w	r8, [r5]
20004296:	f8c3 c0d8 	str.w	ip, [r3, #216]	@ 0xd8
2000429a:	6853      	ldr	r3, [r2, #4]
2000429c:	420b      	tst	r3, r1
2000429e:	d1fc      	bne.n	2000429a <get_pio_line+0x6a>
200042a0:	3801      	subs	r0, #1
200042a2:	f8de 3020 	ldr.w	r3, [lr, #32]
200042a6:	d1f8      	bne.n	2000429a <get_pio_line+0x6a>
200042a8:	1ea0      	subs	r0, r4, #2
200042aa:	f204 549e 	addw	r4, r4, #1438	@ 0x59e
200042ae:	6853      	ldr	r3, [r2, #4]
200042b0:	4219      	tst	r1, r3
200042b2:	d1fc      	bne.n	200042ae <get_pio_line+0x7e>
200042b4:	f8de 3020 	ldr.w	r3, [lr, #32]
200042b8:	f3c3 2c03 	ubfx	ip, r3, #8, #4
200042bc:	ea4f 05dc 	mov.w	r5, ip, lsr #3
200042c0:	ea45 0c4c 	orr.w	ip, r5, ip, lsl #1
200042c4:	f3c3 1503 	ubfx	r5, r3, #4, #4
200042c8:	ea4f 0895 	mov.w	r8, r5, lsr #2
200042cc:	ea48 0585 	orr.w	r5, r8, r5, lsl #2
200042d0:	f3c3 0803 	ubfx	r8, r3, #0, #4
200042d4:	f365 1c4a 	bfi	ip, r5, #5, #6
200042d8:	ea4f 05d8 	mov.w	r5, r8, lsr #3
200042dc:	ea45 0848 	orr.w	r8, r5, r8, lsl #1
200042e0:	f368 2ccf 	bfi	ip, r8, #11, #5
200042e4:	f820 cf02 	strh.w	ip, [r0, #2]!
200042e8:	42a0      	cmp	r0, r4
200042ea:	d1e0      	bne.n	200042ae <get_pio_line+0x7e>
200042ec:	f04f 4300 	mov.w	r3, #2147483648	@ 0x80000000
200042f0:	f506 5640 	add.w	r6, r6, #12288	@ 0x3000
200042f4:	6033      	str	r3, [r6, #0]
200042f6:	6813      	ldr	r3, [r2, #0]
200042f8:	401f      	ands	r7, r3
200042fa:	6017      	str	r7, [r2, #0]
200042fc:	e8bd 83f0 	ldmia.w	sp!, {r4, r5, r6, r7, r8, r9, pc}
20004300:	2007003c 	.word	0x2007003c
20004304:	20005a44 	.word	0x20005a44

20004308 <main>:
20004308:	4bb4      	ldr	r3, [pc, #720]	@ (200045dc <main+0x2d4>)
2000430a:	e92d 4ff0 	stmdb	sp!, {r4, r5, r6, r7, r8, r9, sl, fp, lr}
2000430e:	68db      	ldr	r3, [r3, #12]
20004310:	4ab3      	ldr	r2, [pc, #716]	@ (200045e0 <main+0x2d8>)
20004312:	f483 7340 	eor.w	r3, r3, #768	@ 0x300
20004316:	f083 0303 	eor.w	r3, r3, #3
2000431a:	f3c3 030a 	ubfx	r3, r3, #0, #11
2000431e:	b085      	sub	sp, #20
20004320:	60d3      	str	r3, [r2, #12]
20004322:	f3bf 8f5f 	dmb	sy
20004326:	48af      	ldr	r0, [pc, #700]	@ (200045e4 <main+0x2dc>)
20004328:	ab03      	add	r3, sp, #12
2000432a:	aa02      	add	r2, sp, #8
2000432c:	a901      	add	r1, sp, #4
2000432e:	f7fd fb6f 	bl	20001a10 <check_sys_clock_khz>
20004332:	b918      	cbnz	r0, 2000433c <main+0x34>
20004334:	49ab      	ldr	r1, [pc, #684]	@ (200045e4 <main+0x2dc>)
20004336:	48ac      	ldr	r0, [pc, #688]	@ (200045e8 <main+0x2e0>)
20004338:	f7fc fdac 	bl	20000e94 <panic>
2000433c:	2400      	movs	r4, #0
2000433e:	e9dd 1202 	ldrd	r1, r2, [sp, #8]
20004342:	9801      	ldr	r0, [sp, #4]
20004344:	f7fd fb32 	bl	200019ac <set_sys_clock_pll>
20004348:	4625      	mov	r5, r4
2000434a:	4620      	mov	r0, r4
2000434c:	f7fc fd96 	bl	20000e7c <gpio_init>
20004350:	ec45 4044 	gpioc_bit_oe_put r4, r5
20004354:	2101      	movs	r1, #1
20004356:	4620      	mov	r0, r4
20004358:	f7fc fd5e 	bl	20000e18 <gpio_set_input_hysteresis_enabled>
2000435c:	4620      	mov	r0, r4
2000435e:	2200      	movs	r2, #0
20004360:	2101      	movs	r1, #1
20004362:	3401      	adds	r4, #1
20004364:	f7fc fd3c 	bl	20000de0 <gpio_set_pulls>
20004368:	2c30      	cmp	r4, #48	@ 0x30
2000436a:	d1ee      	bne.n	2000434a <main+0x42>
2000436c:	2017      	movs	r0, #23
2000436e:	f7fc fd85 	bl	20000e7c <gpio_init>
20004372:	2417      	movs	r4, #23
20004374:	ec45 4044 	gpioc_bit_oe_put r4, r5
20004378:	2200      	movs	r2, #0
2000437a:	4620      	mov	r0, r4
2000437c:	2101      	movs	r1, #1
2000437e:	f7fc fd2f 	bl	20000de0 <gpio_set_pulls>
20004382:	2101      	movs	r1, #1
20004384:	4620      	mov	r0, r4
20004386:	f7fc fd47 	bl	20000e18 <gpio_set_input_hysteresis_enabled>
2000438a:	2016      	movs	r0, #22
2000438c:	f7fc fd76 	bl	20000e7c <gpio_init>
20004390:	2416      	movs	r4, #22
20004392:	ec45 4044 	gpioc_bit_oe_put r4, r5
20004396:	2200      	movs	r2, #0
20004398:	4620      	mov	r0, r4
2000439a:	2101      	movs	r1, #1
2000439c:	f7fc fd20 	bl	20000de0 <gpio_set_pulls>
200043a0:	2101      	movs	r1, #1
200043a2:	4620      	mov	r0, r4
200043a4:	f7fc fd38 	bl	20000e18 <gpio_set_input_hysteresis_enabled>
200043a8:	2015      	movs	r0, #21
200043aa:	f7fc fd67 	bl	20000e7c <gpio_init>
200043ae:	2415      	movs	r4, #21
200043b0:	ec45 4044 	gpioc_bit_oe_put r4, r5
200043b4:	2200      	movs	r2, #0
200043b6:	4d8d      	ldr	r5, [pc, #564]	@ (200045ec <main+0x2e4>)
200043b8:	4620      	mov	r0, r4
200043ba:	2101      	movs	r1, #1
200043bc:	f7fc fd10 	bl	20000de0 <gpio_set_pulls>
200043c0:	4620      	mov	r0, r4
200043c2:	2101      	movs	r1, #1
200043c4:	4c8a      	ldr	r4, [pc, #552]	@ (200045f0 <main+0x2e8>)
200043c6:	f7fc fd27 	bl	20000e18 <gpio_set_input_hysteresis_enabled>
200043ca:	2110      	movs	r1, #16
200043cc:	6828      	ldr	r0, [r5, #0]
200043ce:	f7ff fa7b 	bl	200038c8 <pio_set_gpio_base>
200043d2:	4988      	ldr	r1, [pc, #544]	@ (200045f4 <main+0x2ec>)
200043d4:	6820      	ldr	r0, [r4, #0]
200043d6:	f7ff fa87 	bl	200038e8 <pio_add_program>
200043da:	4987      	ldr	r1, [pc, #540]	@ (200045f8 <main+0x2f0>)
200043dc:	4680      	mov	r8, r0
200043de:	6820      	ldr	r0, [r4, #0]
200043e0:	f7ff fa82 	bl	200038e8 <pio_add_program>
200043e4:	4985      	ldr	r1, [pc, #532]	@ (200045fc <main+0x2f4>)
200043e6:	4607      	mov	r7, r0
200043e8:	6828      	ldr	r0, [r5, #0]
200043ea:	f7ff fa7d 	bl	200038e8 <pio_add_program>
200043ee:	4984      	ldr	r1, [pc, #528]	@ (20004600 <main+0x2f8>)
200043f0:	4606      	mov	r6, r0
200043f2:	6828      	ldr	r0, [r5, #0]
200043f4:	f7ff fa78 	bl	200038e8 <pio_add_program>
200043f8:	4605      	mov	r5, r0
200043fa:	4640      	mov	r0, r8
200043fc:	f7fb ff42 	bl	20000284 <setup_vsync_detect_sm>
20004400:	4638      	mov	r0, r7
20004402:	f7fb ffaf 	bl	20000364 <setup_video_capture_sm>
20004406:	4630      	mov	r0, r6
20004408:	f7fc f814 	bl	20000434 <setup_rga_read_sm>
2000440c:	4628      	mov	r0, r5
2000440e:	f7fc f877 	bl	20000500 <setup_rga_write_sm>
20004412:	2201      	movs	r2, #1
20004414:	4b7b      	ldr	r3, [pc, #492]	@ (20004604 <main+0x2fc>)
20004416:	6821      	ldr	r1, [r4, #0]
20004418:	6818      	ldr	r0, [r3, #0]
2000441a:	f100 0310 	add.w	r3, r0, #16
2000441e:	409a      	lsls	r2, r3
20004420:	684c      	ldr	r4, [r1, #4]
20004422:	4014      	ands	r4, r2
20004424:	d1fc      	bne.n	20004420 <main+0x118>
20004426:	f240 168b 	movw	r6, #395	@ 0x18b
2000442a:	f44f 5588 	mov.w	r5, #4352	@ 0x1100
2000442e:	4a76      	ldr	r2, [pc, #472]	@ (20004608 <main+0x300>)
20004430:	1d03      	adds	r3, r0, #4
20004432:	f841 6023 	str.w	r6, [r1, r3, lsl #2]
20004436:	4875      	ldr	r0, [pc, #468]	@ (2000460c <main+0x304>)
20004438:	6015      	str	r5, [r2, #0]
2000443a:	f7ff fb7f 	bl	20003b3c <multicore_launch_core1>
2000443e:	f7fc fbcb 	bl	20000bd8 <mipi_init>
20004442:	4620      	mov	r0, r4
20004444:	f7fc fb9e 	bl	20000b84 <DMASetup>
20004448:	f000 fb78 	bl	20004b3c <rga_process_20ms>
2000444c:	4b70      	ldr	r3, [pc, #448]	@ (20004610 <main+0x308>)
2000444e:	4e71      	ldr	r6, [pc, #452]	@ (20004614 <main+0x30c>)
20004450:	f8df b1e4 	ldr.w	fp, [pc, #484]	@ 20004638 <main+0x330>
20004454:	4d70      	ldr	r5, [pc, #448]	@ (20004618 <main+0x310>)
20004456:	f8df 81e4 	ldr.w	r8, [pc, #484]	@ 2000463c <main+0x334>
2000445a:	f203 5a9c 	addw	sl, r3, #1436	@ 0x59c
2000445e:	7833      	ldrb	r3, [r6, #0]
20004460:	2b00      	cmp	r3, #0
20004462:	f000 8083 	beq.w	2000456c <main+0x264>
20004466:	2300      	movs	r3, #0
20004468:	7033      	strb	r3, [r6, #0]
2000446a:	f89b 3000 	ldrb.w	r3, [fp]
2000446e:	f003 04ff 	and.w	r4, r3, #255	@ 0xff
20004472:	2b00      	cmp	r3, #0
20004474:	d1f9      	bne.n	2000446a <main+0x162>
20004476:	f000 fa16 	bl	200048a6 <mipiCsiFrameStart>
2000447a:	f44f 67b4 	mov.w	r7, #1440	@ 0x5a0
2000447e:	f000 fb5d 	bl	20004b3c <rga_process_20ms>
20004482:	782b      	ldrb	r3, [r5, #0]
20004484:	2b00      	cmp	r3, #0
20004486:	d058      	beq.n	2000453a <main+0x232>
20004488:	f44f 62b4 	mov.w	r2, #1440	@ 0x5a0
2000448c:	4963      	ldr	r1, [pc, #396]	@ (2000461c <main+0x314>)
2000448e:	4864      	ldr	r0, [pc, #400]	@ (20004620 <main+0x318>)
20004490:	f7ff fd74 	bl	20003f7c <memcpy>
20004494:	2300      	movs	r3, #0
20004496:	702b      	strb	r3, [r5, #0]
20004498:	4b62      	ldr	r3, [pc, #392]	@ (20004624 <main+0x31c>)
2000449a:	781b      	ldrb	r3, [r3, #0]
2000449c:	2b00      	cmp	r3, #0
2000449e:	f000 8125 	beq.w	200046ec <main+0x3e4>
200044a2:	4a61      	ldr	r2, [pc, #388]	@ (20004628 <main+0x320>)
200044a4:	f898 3000 	ldrb.w	r3, [r8]
200044a8:	fb07 2904 	mla	r9, r7, r4, r2
200044ac:	2b00      	cmp	r3, #0
200044ae:	d060      	beq.n	20004572 <main+0x26a>
200044b0:	4b5e      	ldr	r3, [pc, #376]	@ (2000462c <main+0x324>)
200044b2:	781b      	ldrb	r3, [r3, #0]
200044b4:	2b00      	cmp	r3, #0
200044b6:	f000 80c5 	beq.w	20004644 <main+0x33c>
200044ba:	f44f 62b4 	mov.w	r2, #1440	@ 0x5a0
200044be:	4958      	ldr	r1, [pc, #352]	@ (20004620 <main+0x318>)
200044c0:	4853      	ldr	r0, [pc, #332]	@ (20004610 <main+0x308>)
200044c2:	f7ff fd5b 	bl	20003f7c <memcpy>
200044c6:	4b5a      	ldr	r3, [pc, #360]	@ (20004630 <main+0x328>)
200044c8:	681b      	ldr	r3, [r3, #0]
200044ca:	2b03      	cmp	r3, #3
200044cc:	d87b      	bhi.n	200045c6 <main+0x2be>
200044ce:	e8df f013 	tbh	[pc, r3, lsl #1]
200044d2:	01a8      	.short	0x01a8
200044d4:	0194019e 	.word	0x0194019e
200044d8:	0069      	.short	0x0069
200044da:	f44f 73b4 	mov.w	r3, #360	@ 0x168
200044de:	4a4c      	ldr	r2, [pc, #304]	@ (20004610 <main+0x308>)
200044e0:	f8df c15c 	ldr.w	ip, [pc, #348]	@ 20004640 <main+0x338>
200044e4:	6810      	ldr	r0, [r2, #0]
200044e6:	ea00 010c 	and.w	r1, r0, ip
200044ea:	ea4f 0191 	mov.w	r1, r1, lsr #2
200044ee:	fad0 f041 	usub16	r0, r0, r1
200044f2:	f842 0b04 	str.w	r0, [r2], #4
200044f6:	3b01      	subs	r3, #1
200044f8:	d1f4      	bne.n	200044e4 <main+0x1dc>
200044fa:	f44f 62b4 	mov.w	r2, #1440	@ 0x5a0
200044fe:	2022      	movs	r0, #34	@ 0x22
20004500:	4943      	ldr	r1, [pc, #268]	@ (20004610 <main+0x308>)
20004502:	f000 f9f9 	bl	200048f8 <mipiCsiSendLong>
20004506:	f89b 3000 	ldrb.w	r3, [fp]
2000450a:	2b00      	cmp	r3, #0
2000450c:	d1fb      	bne.n	20004506 <main+0x1fe>
2000450e:	f44f 62b4 	mov.w	r2, #1440	@ 0x5a0
20004512:	4649      	mov	r1, r9
20004514:	2022      	movs	r0, #34	@ 0x22
20004516:	f000 f9ef 	bl	200048f8 <mipiCsiSendLong>
2000451a:	4648      	mov	r0, r9
2000451c:	f44f 62b4 	mov.w	r2, #1440	@ 0x5a0
20004520:	493f      	ldr	r1, [pc, #252]	@ (20004620 <main+0x318>)
20004522:	f7ff fd2b 	bl	20003f7c <memcpy>
20004526:	f898 2000 	ldrb.w	r2, [r8]
2000452a:	f240 131f 	movw	r3, #287	@ 0x11f
2000452e:	2a00      	cmp	r2, #0
20004530:	bf08      	it	eq
20004532:	23ef      	moveq	r3, #239	@ 0xef
20004534:	3401      	adds	r4, #1
20004536:	42a3      	cmp	r3, r4
20004538:	d902      	bls.n	20004540 <main+0x238>
2000453a:	f000 faff 	bl	20004b3c <rga_process_20ms>
2000453e:	e7a0      	b.n	20004482 <main+0x17a>
20004540:	f44f 62b4 	mov.w	r2, #1440	@ 0x5a0
20004544:	2022      	movs	r0, #34	@ 0x22
20004546:	493b      	ldr	r1, [pc, #236]	@ (20004634 <main+0x32c>)
20004548:	f000 f9d6 	bl	200048f8 <mipiCsiSendLong>
2000454c:	f89b 3000 	ldrb.w	r3, [fp]
20004550:	2b00      	cmp	r3, #0
20004552:	d1fb      	bne.n	2000454c <main+0x244>
20004554:	f44f 62b4 	mov.w	r2, #1440	@ 0x5a0
20004558:	2022      	movs	r0, #34	@ 0x22
2000455a:	4936      	ldr	r1, [pc, #216]	@ (20004634 <main+0x32c>)
2000455c:	f000 f9cc 	bl	200048f8 <mipiCsiSendLong>
20004560:	f89b 3000 	ldrb.w	r3, [fp]
20004564:	2b00      	cmp	r3, #0
20004566:	d1fb      	bne.n	20004560 <main+0x258>
20004568:	f000 f9b0 	bl	200048cc <mipiCsiFrameEnd>
2000456c:	f000 fae6 	bl	20004b3c <rga_process_20ms>
20004570:	e775      	b.n	2000445e <main+0x156>
20004572:	4b2e      	ldr	r3, [pc, #184]	@ (2000462c <main+0x324>)
20004574:	781b      	ldrb	r3, [r3, #0]
20004576:	2b00      	cmp	r3, #0
20004578:	d16c      	bne.n	20004654 <main+0x34c>
2000457a:	f44f 62b4 	mov.w	r2, #1440	@ 0x5a0
2000457e:	4928      	ldr	r1, [pc, #160]	@ (20004620 <main+0x318>)
20004580:	4823      	ldr	r0, [pc, #140]	@ (20004610 <main+0x308>)
20004582:	f7ff fcfb 	bl	20003f7c <memcpy>
20004586:	4b2a      	ldr	r3, [pc, #168]	@ (20004630 <main+0x328>)
20004588:	681b      	ldr	r3, [r3, #0]
2000458a:	2b03      	cmp	r3, #3
2000458c:	d8b5      	bhi.n	200044fa <main+0x1f2>
2000458e:	a201      	add	r2, pc, #4	@ (adr r2, 20004594 <main+0x28c>)
20004590:	f852 f023 	ldr.w	pc, [r2, r3, lsl #2]
20004594:	200047ed 	.word	0x200047ed
20004598:	200047d9 	.word	0x200047d9
2000459c:	200047c5 	.word	0x200047c5
200045a0:	200044db 	.word	0x200044db
200045a4:	f44f 73b4 	mov.w	r3, #360	@ 0x168
200045a8:	4a19      	ldr	r2, [pc, #100]	@ (20004610 <main+0x308>)
200045aa:	f8df c094 	ldr.w	ip, [pc, #148]	@ 20004640 <main+0x338>
200045ae:	bf00      	nop
200045b0:	6810      	ldr	r0, [r2, #0]
200045b2:	ea00 010c 	and.w	r1, r0, ip
200045b6:	ea4f 0191 	mov.w	r1, r1, lsr #2
200045ba:	fad0 f041 	usub16	r0, r0, r1
200045be:	f842 0b04 	str.w	r0, [r2], #4
200045c2:	3b01      	subs	r3, #1
200045c4:	d1f4      	bne.n	200045b0 <main+0x2a8>
200045c6:	f44f 62b4 	mov.w	r2, #1440	@ 0x5a0
200045ca:	2022      	movs	r0, #34	@ 0x22
200045cc:	4910      	ldr	r1, [pc, #64]	@ (20004610 <main+0x308>)
200045ce:	f000 f993 	bl	200048f8 <mipiCsiSendLong>
200045d2:	f89b 3000 	ldrb.w	r3, [fp]
200045d6:	2b00      	cmp	r3, #0
200045d8:	d1fb      	bne.n	200045d2 <main+0x2ca>
200045da:	e798      	b.n	2000450e <main+0x206>
200045dc:	400d0000 	.word	0x400d0000
200045e0:	400d1000 	.word	0x400d1000
200045e4:	00054f60 	.word	0x00054f60
200045e8:	20005080 	.word	0x20005080
200045ec:	20005a40 	.word	0x20005a40
200045f0:	20005a44 	.word	0x20005a44
200045f4:	20005810 	.word	0x20005810
200045f8:	20005838 	.word	0x20005838
200045fc:	200057f0 	.word	0x200057f0
20004600:	200057d0 	.word	0x200057d0
20004604:	2007003c 	.word	0x2007003c
20004608:	40068000 	.word	0x40068000
2000460c:	20000161 	.word	0x20000161
20004610:	200061e0 	.word	0x200061e0
20004614:	20005a3e 	.word	0x20005a3e
20004618:	20070048 	.word	0x20070048
2000461c:	2006c934 	.word	0x2006c934
20004620:	20005c40 	.word	0x20005c40
20004624:	20070046 	.word	0x20070046
20004628:	20007530 	.word	0x20007530
2000462c:	20005a3d 	.word	0x20005a3d
20004630:	20005a34 	.word	0x20005a34
20004634:	200067ac 	.word	0x200067ac
20004638:	20070047 	.word	0x20070047
2000463c:	20005a3f 	.word	0x20005a3f
20004640:	e79ce79c 	.word	0xe79ce79c
20004644:	4b89      	ldr	r3, [pc, #548]	@ (2000486c <main+0x564>)
20004646:	681b      	ldr	r3, [r3, #0]
20004648:	2b03      	cmp	r3, #3
2000464a:	d81c      	bhi.n	20004686 <main+0x37e>
2000464c:	e8df f003 	tbb	[pc, r3]
20004650:	0a99a6b3 	.word	0x0a99a6b3
20004654:	4b85      	ldr	r3, [pc, #532]	@ (2000486c <main+0x564>)
20004656:	681b      	ldr	r3, [r3, #0]
20004658:	2b03      	cmp	r3, #3
2000465a:	d836      	bhi.n	200046ca <main+0x3c2>
2000465c:	e8df f003 	tbb	[pc, r3]
20004660:	24707d8a 	.word	0x24707d8a
20004664:	f44f 73b4 	mov.w	r3, #360	@ 0x168
20004668:	464a      	mov	r2, r9
2000466a:	f8df c224 	ldr.w	ip, [pc, #548]	@ 20004890 <main+0x588>
2000466e:	bf00      	nop
20004670:	6810      	ldr	r0, [r2, #0]
20004672:	ea00 010c 	and.w	r1, r0, ip
20004676:	ea4f 0191 	mov.w	r1, r1, lsr #2
2000467a:	fad0 f041 	usub16	r0, r0, r1
2000467e:	f842 0b04 	str.w	r0, [r2], #4
20004682:	3b01      	subs	r3, #1
20004684:	d1f4      	bne.n	20004670 <main+0x368>
20004686:	f44f 62b4 	mov.w	r2, #1440	@ 0x5a0
2000468a:	4649      	mov	r1, r9
2000468c:	2022      	movs	r0, #34	@ 0x22
2000468e:	f000 f933 	bl	200048f8 <mipiCsiSendLong>
20004692:	f89b 3000 	ldrb.w	r3, [fp]
20004696:	2b00      	cmp	r3, #0
20004698:	d1fb      	bne.n	20004692 <main+0x38a>
2000469a:	f44f 62b4 	mov.w	r2, #1440	@ 0x5a0
2000469e:	2022      	movs	r0, #34	@ 0x22
200046a0:	4973      	ldr	r1, [pc, #460]	@ (20004870 <main+0x568>)
200046a2:	f000 f929 	bl	200048f8 <mipiCsiSendLong>
200046a6:	e738      	b.n	2000451a <main+0x212>
200046a8:	f44f 73b4 	mov.w	r3, #360	@ 0x168
200046ac:	464a      	mov	r2, r9
200046ae:	f8df c1e0 	ldr.w	ip, [pc, #480]	@ 20004890 <main+0x588>
200046b2:	bf00      	nop
200046b4:	6810      	ldr	r0, [r2, #0]
200046b6:	ea00 010c 	and.w	r1, r0, ip
200046ba:	ea4f 0191 	mov.w	r1, r1, lsr #2
200046be:	fad0 f041 	usub16	r0, r0, r1
200046c2:	f842 0b04 	str.w	r0, [r2], #4
200046c6:	3b01      	subs	r3, #1
200046c8:	d1f4      	bne.n	200046b4 <main+0x3ac>
200046ca:	f44f 62b4 	mov.w	r2, #1440	@ 0x5a0
200046ce:	4649      	mov	r1, r9
200046d0:	2022      	movs	r0, #34	@ 0x22
200046d2:	f000 f911 	bl	200048f8 <mipiCsiSendLong>
200046d6:	f89b 3000 	ldrb.w	r3, [fp]
200046da:	2b00      	cmp	r3, #0
200046dc:	d1fb      	bne.n	200046d6 <main+0x3ce>
200046de:	f44f 62b4 	mov.w	r2, #1440	@ 0x5a0
200046e2:	2022      	movs	r0, #34	@ 0x22
200046e4:	4962      	ldr	r1, [pc, #392]	@ (20004870 <main+0x568>)
200046e6:	f000 f907 	bl	200048f8 <mipiCsiSendLong>
200046ea:	e716      	b.n	2000451a <main+0x212>
200046ec:	f44f 62b4 	mov.w	r2, #1440	@ 0x5a0
200046f0:	2022      	movs	r0, #34	@ 0x22
200046f2:	495f      	ldr	r1, [pc, #380]	@ (20004870 <main+0x568>)
200046f4:	f000 f900 	bl	200048f8 <mipiCsiSendLong>
200046f8:	4b5e      	ldr	r3, [pc, #376]	@ (20004874 <main+0x56c>)
200046fa:	681b      	ldr	r3, [r3, #0]
200046fc:	2b03      	cmp	r3, #3
200046fe:	d814      	bhi.n	2000472a <main+0x422>
20004700:	e8df f003 	tbb	[pc, r3]
20004704:	0296a1ac 	.word	0x0296a1ac
20004708:	f44f 73b4 	mov.w	r3, #360	@ 0x168
2000470c:	4a58      	ldr	r2, [pc, #352]	@ (20004870 <main+0x568>)
2000470e:	f8df c180 	ldr.w	ip, [pc, #384]	@ 20004890 <main+0x588>
20004712:	bf00      	nop
20004714:	6810      	ldr	r0, [r2, #0]
20004716:	ea00 010c 	and.w	r1, r0, ip
2000471a:	ea4f 0191 	mov.w	r1, r1, lsr #2
2000471e:	fad0 f041 	usub16	r0, r0, r1
20004722:	f842 0b04 	str.w	r0, [r2], #4
20004726:	3b01      	subs	r3, #1
20004728:	d1f4      	bne.n	20004714 <main+0x40c>
2000472a:	f89b 3000 	ldrb.w	r3, [fp]
2000472e:	2b00      	cmp	r3, #0
20004730:	d1fb      	bne.n	2000472a <main+0x422>
20004732:	f44f 62b4 	mov.w	r2, #1440	@ 0x5a0
20004736:	2022      	movs	r0, #34	@ 0x22
20004738:	494d      	ldr	r1, [pc, #308]	@ (20004870 <main+0x568>)
2000473a:	f000 f8dd 	bl	200048f8 <mipiCsiSendLong>
2000473e:	e6f2      	b.n	20004526 <main+0x21e>
20004740:	484d      	ldr	r0, [pc, #308]	@ (20004878 <main+0x570>)
20004742:	f1a9 0304 	sub.w	r3, r9, #4
20004746:	f209 519c 	addw	r1, r9, #1436	@ 0x59c
2000474a:	f853 2f04 	ldr.w	r2, [r3, #4]!
2000474e:	ea00 0252 	and.w	r2, r0, r2, lsr #1
20004752:	4299      	cmp	r1, r3
20004754:	601a      	str	r2, [r3, #0]
20004756:	d1f8      	bne.n	2000474a <main+0x442>
20004758:	e7b7      	b.n	200046ca <main+0x3c2>
2000475a:	4848      	ldr	r0, [pc, #288]	@ (2000487c <main+0x574>)
2000475c:	f1a9 0304 	sub.w	r3, r9, #4
20004760:	f209 519c 	addw	r1, r9, #1436	@ 0x59c
20004764:	f853 2f04 	ldr.w	r2, [r3, #4]!
20004768:	ea00 0292 	and.w	r2, r0, r2, lsr #2
2000476c:	4299      	cmp	r1, r3
2000476e:	601a      	str	r2, [r3, #0]
20004770:	d1f8      	bne.n	20004764 <main+0x45c>
20004772:	e7aa      	b.n	200046ca <main+0x3c2>
20004774:	f44f 62b4 	mov.w	r2, #1440	@ 0x5a0
20004778:	2100      	movs	r1, #0
2000477a:	4648      	mov	r0, r9
2000477c:	f7ff fbb0 	bl	20003ee0 <memset>
20004780:	e7a3      	b.n	200046ca <main+0x3c2>
20004782:	483d      	ldr	r0, [pc, #244]	@ (20004878 <main+0x570>)
20004784:	f1a9 0304 	sub.w	r3, r9, #4
20004788:	f209 519c 	addw	r1, r9, #1436	@ 0x59c
2000478c:	f853 2f04 	ldr.w	r2, [r3, #4]!
20004790:	ea00 0252 	and.w	r2, r0, r2, lsr #1
20004794:	4299      	cmp	r1, r3
20004796:	601a      	str	r2, [r3, #0]
20004798:	d1f8      	bne.n	2000478c <main+0x484>
2000479a:	e774      	b.n	20004686 <main+0x37e>
2000479c:	4837      	ldr	r0, [pc, #220]	@ (2000487c <main+0x574>)
2000479e:	f1a9 0304 	sub.w	r3, r9, #4
200047a2:	f209 519c 	addw	r1, r9, #1436	@ 0x59c
200047a6:	f853 2f04 	ldr.w	r2, [r3, #4]!
200047aa:	ea00 0292 	and.w	r2, r0, r2, lsr #2
200047ae:	428b      	cmp	r3, r1
200047b0:	601a      	str	r2, [r3, #0]
200047b2:	d1f8      	bne.n	200047a6 <main+0x49e>
200047b4:	e767      	b.n	20004686 <main+0x37e>
200047b6:	f44f 62b4 	mov.w	r2, #1440	@ 0x5a0
200047ba:	2100      	movs	r1, #0
200047bc:	4648      	mov	r0, r9
200047be:	f7ff fb8f 	bl	20003ee0 <memset>
200047c2:	e760      	b.n	20004686 <main+0x37e>
200047c4:	4b2e      	ldr	r3, [pc, #184]	@ (20004880 <main+0x578>)
200047c6:	492c      	ldr	r1, [pc, #176]	@ (20004878 <main+0x570>)
200047c8:	f853 2f04 	ldr.w	r2, [r3, #4]!
200047cc:	ea01 0252 	and.w	r2, r1, r2, lsr #1
200047d0:	4553      	cmp	r3, sl
200047d2:	601a      	str	r2, [r3, #0]
200047d4:	d1f8      	bne.n	200047c8 <main+0x4c0>
200047d6:	e690      	b.n	200044fa <main+0x1f2>
200047d8:	4b29      	ldr	r3, [pc, #164]	@ (20004880 <main+0x578>)
200047da:	4928      	ldr	r1, [pc, #160]	@ (2000487c <main+0x574>)
200047dc:	f853 2f04 	ldr.w	r2, [r3, #4]!
200047e0:	ea01 0292 	and.w	r2, r1, r2, lsr #2
200047e4:	459a      	cmp	sl, r3
200047e6:	601a      	str	r2, [r3, #0]
200047e8:	d1f8      	bne.n	200047dc <main+0x4d4>
200047ea:	e686      	b.n	200044fa <main+0x1f2>
200047ec:	f44f 62b4 	mov.w	r2, #1440	@ 0x5a0
200047f0:	2100      	movs	r1, #0
200047f2:	4824      	ldr	r0, [pc, #144]	@ (20004884 <main+0x57c>)
200047f4:	f7ff fb74 	bl	20003ee0 <memset>
200047f8:	e67f      	b.n	200044fa <main+0x1f2>
200047fa:	4b21      	ldr	r3, [pc, #132]	@ (20004880 <main+0x578>)
200047fc:	491e      	ldr	r1, [pc, #120]	@ (20004878 <main+0x570>)
200047fe:	f853 2f04 	ldr.w	r2, [r3, #4]!
20004802:	ea01 0252 	and.w	r2, r1, r2, lsr #1
20004806:	459a      	cmp	sl, r3
20004808:	601a      	str	r2, [r3, #0]
2000480a:	d1f8      	bne.n	200047fe <main+0x4f6>
2000480c:	e6db      	b.n	200045c6 <main+0x2be>
2000480e:	4b1c      	ldr	r3, [pc, #112]	@ (20004880 <main+0x578>)
20004810:	491a      	ldr	r1, [pc, #104]	@ (2000487c <main+0x574>)
20004812:	f853 2f04 	ldr.w	r2, [r3, #4]!
20004816:	ea01 0292 	and.w	r2, r1, r2, lsr #2
2000481a:	4553      	cmp	r3, sl
2000481c:	601a      	str	r2, [r3, #0]
2000481e:	d1f8      	bne.n	20004812 <main+0x50a>
20004820:	e6d1      	b.n	200045c6 <main+0x2be>
20004822:	f44f 62b4 	mov.w	r2, #1440	@ 0x5a0
20004826:	2100      	movs	r1, #0
20004828:	4816      	ldr	r0, [pc, #88]	@ (20004884 <main+0x57c>)
2000482a:	f7ff fb59 	bl	20003ee0 <memset>
2000482e:	e6ca      	b.n	200045c6 <main+0x2be>
20004830:	4b15      	ldr	r3, [pc, #84]	@ (20004888 <main+0x580>)
20004832:	4911      	ldr	r1, [pc, #68]	@ (20004878 <main+0x570>)
20004834:	f853 2f04 	ldr.w	r2, [r3, #4]!
20004838:	ea01 0252 	and.w	r2, r1, r2, lsr #1
2000483c:	601a      	str	r2, [r3, #0]
2000483e:	4a13      	ldr	r2, [pc, #76]	@ (2000488c <main+0x584>)
20004840:	429a      	cmp	r2, r3
20004842:	d1f7      	bne.n	20004834 <main+0x52c>
20004844:	e771      	b.n	2000472a <main+0x422>
20004846:	4b10      	ldr	r3, [pc, #64]	@ (20004888 <main+0x580>)
20004848:	490c      	ldr	r1, [pc, #48]	@ (2000487c <main+0x574>)
2000484a:	f853 2f04 	ldr.w	r2, [r3, #4]!
2000484e:	ea01 0292 	and.w	r2, r1, r2, lsr #2
20004852:	601a      	str	r2, [r3, #0]
20004854:	4a0d      	ldr	r2, [pc, #52]	@ (2000488c <main+0x584>)
20004856:	429a      	cmp	r2, r3
20004858:	d1f7      	bne.n	2000484a <main+0x542>
2000485a:	e766      	b.n	2000472a <main+0x422>
2000485c:	f44f 62b4 	mov.w	r2, #1440	@ 0x5a0
20004860:	2100      	movs	r1, #0
20004862:	4803      	ldr	r0, [pc, #12]	@ (20004870 <main+0x568>)
20004864:	f7ff fb3c 	bl	20003ee0 <memset>
20004868:	e75f      	b.n	2000472a <main+0x422>
2000486a:	bf00      	nop
2000486c:	20005a34 	.word	0x20005a34
20004870:	20005c40 	.word	0x20005c40
20004874:	20005a38 	.word	0x20005a38
20004878:	7bef7bef 	.word	0x7bef7bef
2000487c:	39e739e7 	.word	0x39e739e7
20004880:	200061dc 	.word	0x200061dc
20004884:	200061e0 	.word	0x200061e0
20004888:	20005c3c 	.word	0x20005c3c
2000488c:	200061dc 	.word	0x200061dc
20004890:	e79ce79c 	.word	0xe79ce79c

20004894 <dma_handler>:
20004894:	b508      	push	{r3, lr}
20004896:	f04f 43a0 	mov.w	r3, #1342177280	@ 0x50000000
2000489a:	2201      	movs	r2, #1
2000489c:	f8c3 240c 	str.w	r2, [r3, #1036]	@ 0x40c
200048a0:	f7fb feae 	bl	20000600 <stop_hstx>
200048a4:	bd08      	pop	{r3, pc}

200048a6 <mipiCsiFrameStart>:
200048a6:	b500      	push	{lr}
200048a8:	b083      	sub	sp, #12
200048aa:	23b8      	movs	r3, #184	@ 0xb8
200048ac:	9300      	str	r3, [sp, #0]
200048ae:	2300      	movs	r3, #0
200048b0:	f88d 3004 	strb.w	r3, [sp, #4]
200048b4:	f7fb ffce 	bl	20000854 <start_hstx>
200048b8:	f04f 43a0 	mov.w	r3, #1342177280	@ 0x50000000
200048bc:	f8c3 d000 	str.w	sp, [r3]
200048c0:	2205      	movs	r2, #5
200048c2:	61da      	str	r2, [r3, #28]
200048c4:	b003      	add	sp, #12
200048c6:	f85d fb04 	ldr.w	pc, [sp], #4
	...

200048cc <mipiCsiFrameEnd>:
200048cc:	b500      	push	{lr}
200048ce:	b083      	sub	sp, #12
200048d0:	4b08      	ldr	r3, [pc, #32]	@ (200048f4 <mipiCsiFrameEnd+0x28>)
200048d2:	e893 0003 	ldmia.w	r3, {r0, r1}
200048d6:	9000      	str	r0, [sp, #0]
200048d8:	f88d 1004 	strb.w	r1, [sp, #4]
200048dc:	f7fb ffba 	bl	20000854 <start_hstx>
200048e0:	f04f 43a0 	mov.w	r3, #1342177280	@ 0x50000000
200048e4:	f8c3 d000 	str.w	sp, [r3]
200048e8:	2205      	movs	r2, #5
200048ea:	61da      	str	r2, [r3, #28]
200048ec:	b003      	add	sp, #12
200048ee:	f85d fb04 	ldr.w	pc, [sp], #4
200048f2:	bf00      	nop
200048f4:	20005870 	.word	0x20005870

200048f8 <mipiCsiSendLong>:
200048f8:	b570      	push	{r4, r5, r6, lr}
200048fa:	b084      	sub	sp, #16
200048fc:	468c      	mov	ip, r1
200048fe:	4614      	mov	r4, r2
20004900:	4b0f      	ldr	r3, [pc, #60]	@ (20004940 <mipiCsiSendLong+0x48>)
20004902:	e893 0003 	ldmia.w	r3, {r0, r1}
20004906:	9002      	str	r0, [sp, #8]
20004908:	f88d 100c 	strb.w	r1, [sp, #12]
2000490c:	f44f 467f 	mov.w	r6, #65280	@ 0xff00
20004910:	f8ad 6004 	strh.w	r6, [sp, #4]
20004914:	4d0b      	ldr	r5, [pc, #44]	@ (20004944 <mipiCsiSendLong+0x4c>)
20004916:	ab04      	add	r3, sp, #16
20004918:	e913 0003 	ldmdb	r3, {r0, r1}
2000491c:	6028      	str	r0, [r5, #0]
2000491e:	7129      	strb	r1, [r5, #4]
20004920:	4661      	mov	r1, ip
20004922:	1d68      	adds	r0, r5, #5
20004924:	f7ff fb2a 	bl	20003f7c <memcpy>
20004928:	1d63      	adds	r3, r4, #5
2000492a:	52ee      	strh	r6, [r5, r3]
2000492c:	3407      	adds	r4, #7
2000492e:	f7fb ff91 	bl	20000854 <start_hstx>
20004932:	f04f 43a0 	mov.w	r3, #1342177280	@ 0x50000000
20004936:	601d      	str	r5, [r3, #0]
20004938:	61dc      	str	r4, [r3, #28]
2000493a:	b004      	add	sp, #16
2000493c:	bd70      	pop	{r4, r5, r6, pc}
2000493e:	bf00      	nop
20004940:	2000512c 	.word	0x2000512c
20004944:	20006e54 	.word	0x20006e54

20004948 <calc_crc>:
20004948:	4684      	mov	ip, r0
2000494a:	2300      	movs	r3, #0
2000494c:	4618      	mov	r0, r3
2000494e:	e003      	b.n	20004958 <calc_crc+0x10>
20004950:	f83c 2013 	ldrh.w	r2, [ip, r3, lsl #1]
20004954:	4050      	eors	r0, r2
20004956:	3301      	adds	r3, #1
20004958:	428b      	cmp	r3, r1
2000495a:	dbf9      	blt.n	20004950 <calc_crc+0x8>
2000495c:	4770      	bx	lr
	...

20004960 <perform_update_and_reboot>:
20004960:	b5f8      	push	{r3, r4, r5, r6, r7, lr}
20004962:	4607      	mov	r7, r0
20004964:	2400      	movs	r4, #0
20004966:	e014      	b.n	20004992 <perform_update_and_reboot+0x32>
20004968:	4e0d      	ldr	r6, [pc, #52]	@ (200049a0 <perform_update_and_reboot+0x40>)
2000496a:	f44f 5580 	mov.w	r5, #4096	@ 0x1000
2000496e:	462a      	mov	r2, r5
20004970:	f104 5180 	add.w	r1, r4, #268435456	@ 0x10000000
20004974:	f501 1180 	add.w	r1, r1, #1048576	@ 0x100000
20004978:	4630      	mov	r0, r6
2000497a:	f7ff faff 	bl	20003f7c <memcpy>
2000497e:	4629      	mov	r1, r5
20004980:	4620      	mov	r0, r4
20004982:	f000 fa4d 	bl	20004e20 <flash_range_erase>
20004986:	462a      	mov	r2, r5
20004988:	4631      	mov	r1, r6
2000498a:	4620      	mov	r0, r4
2000498c:	f000 fad2 	bl	20004f34 <flash_range_program>
20004990:	442c      	add	r4, r5
20004992:	42bc      	cmp	r4, r7
20004994:	d3e8      	bcc.n	20004968 <perform_update_and_reboot+0x8>
20004996:	2101      	movs	r1, #1
20004998:	4608      	mov	r0, r1
2000499a:	f7fd f937 	bl	20001c0c <watchdog_enable>
2000499e:	e7fe      	b.n	2000499e <perform_update_and_reboot+0x3e>
200049a0:	2006f030 	.word	0x2006f030

200049a4 <process_complete_packet>:
200049a4:	b570      	push	{r4, r5, r6, lr}
200049a6:	b084      	sub	sp, #16
200049a8:	4604      	mov	r4, r0
200049aa:	f101 4300 	add.w	r3, r1, #2147483648	@ 0x80000000
200049ae:	3b02      	subs	r3, #2
200049b0:	f830 6013 	ldrh.w	r6, [r0, r3, lsl #1]
200049b4:	f101 4300 	add.w	r3, r1, #2147483648	@ 0x80000000
200049b8:	3b01      	subs	r3, #1
200049ba:	f830 5013 	ldrh.w	r5, [r0, r3, lsl #1]
200049be:	3902      	subs	r1, #2
200049c0:	f7ff ffc2 	bl	20004948 <calc_crc>
200049c4:	f64e 63ff 	movw	r3, #61183	@ 0xeeff
200049c8:	429d      	cmp	r5, r3
200049ca:	f040 80ab 	bne.w	20004b24 <process_complete_packet+0x180>
200049ce:	4286      	cmp	r6, r0
200049d0:	f040 80a8 	bne.w	20004b24 <process_complete_packet+0x180>
200049d4:	8863      	ldrh	r3, [r4, #2]
200049d6:	0a1b      	lsrs	r3, r3, #8
200049d8:	88a1      	ldrh	r1, [r4, #4]
200049da:	88e2      	ldrh	r2, [r4, #6]
200049dc:	ea42 4201 	orr.w	r2, r2, r1, lsl #16
200049e0:	9203      	str	r2, [sp, #12]
200049e2:	2b10      	cmp	r3, #16
200049e4:	d00f      	beq.n	20004a06 <process_complete_packet+0x62>
200049e6:	2b11      	cmp	r3, #17
200049e8:	d01b      	beq.n	20004a22 <process_complete_packet+0x7e>
200049ea:	2b12      	cmp	r3, #18
200049ec:	d039      	beq.n	20004a62 <process_complete_packet+0xbe>
200049ee:	9903      	ldr	r1, [sp, #12]
200049f0:	f641 72fe 	movw	r2, #8190	@ 0x1ffe
200049f4:	4291      	cmp	r1, r2
200049f6:	d85f      	bhi.n	20004ab8 <process_complete_packet+0x114>
200049f8:	2b01      	cmp	r3, #1
200049fa:	d048      	beq.n	20004a8e <process_complete_packet+0xea>
200049fc:	2b02      	cmp	r3, #2
200049fe:	d050      	beq.n	20004aa2 <process_complete_packet+0xfe>
20004a00:	2200      	movs	r2, #0
20004a02:	2302      	movs	r3, #2
20004a04:	e05a      	b.n	20004abc <process_complete_packet+0x118>
20004a06:	f44f 1180 	mov.w	r1, #1048576	@ 0x100000
20004a0a:	4608      	mov	r0, r1
20004a0c:	f000 fa08 	bl	20004e20 <flash_range_erase>
20004a10:	4b45      	ldr	r3, [pc, #276]	@ (20004b28 <process_complete_packet+0x184>)
20004a12:	f44f 1280 	mov.w	r2, #1048576	@ 0x100000
20004a16:	601a      	str	r2, [r3, #0]
20004a18:	2300      	movs	r3, #0
20004a1a:	4a44      	ldr	r2, [pc, #272]	@ (20004b2c <process_complete_packet+0x188>)
20004a1c:	6013      	str	r3, [r2, #0]
20004a1e:	461a      	mov	r2, r3
20004a20:	e04c      	b.n	20004abc <process_complete_packet+0x118>
20004a22:	8924      	ldrh	r4, [r4, #8]
20004a24:	4a41      	ldr	r2, [pc, #260]	@ (20004b2c <process_complete_packet+0x188>)
20004a26:	6813      	ldr	r3, [r2, #0]
20004a28:	1c59      	adds	r1, r3, #1
20004a2a:	6011      	str	r1, [r2, #0]
20004a2c:	4840      	ldr	r0, [pc, #256]	@ (20004b30 <process_complete_packet+0x18c>)
20004a2e:	0a25      	lsrs	r5, r4, #8
20004a30:	54c5      	strb	r5, [r0, r3]
20004a32:	3302      	adds	r3, #2
20004a34:	6013      	str	r3, [r2, #0]
20004a36:	5444      	strb	r4, [r0, r1]
20004a38:	2bff      	cmp	r3, #255	@ 0xff
20004a3a:	d802      	bhi.n	20004a42 <process_complete_packet+0x9e>
20004a3c:	2200      	movs	r2, #0
20004a3e:	4613      	mov	r3, r2
20004a40:	e03c      	b.n	20004abc <process_complete_packet+0x118>
20004a42:	4c39      	ldr	r4, [pc, #228]	@ (20004b28 <process_complete_packet+0x184>)
20004a44:	f44f 7280 	mov.w	r2, #256	@ 0x100
20004a48:	4601      	mov	r1, r0
20004a4a:	6820      	ldr	r0, [r4, #0]
20004a4c:	f000 fa72 	bl	20004f34 <flash_range_program>
20004a50:	6823      	ldr	r3, [r4, #0]
20004a52:	f503 7380 	add.w	r3, r3, #256	@ 0x100
20004a56:	6023      	str	r3, [r4, #0]
20004a58:	2300      	movs	r3, #0
20004a5a:	4a34      	ldr	r2, [pc, #208]	@ (20004b2c <process_complete_packet+0x188>)
20004a5c:	6013      	str	r3, [r2, #0]
20004a5e:	461a      	mov	r2, r3
20004a60:	e02c      	b.n	20004abc <process_complete_packet+0x118>
20004a62:	4b32      	ldr	r3, [pc, #200]	@ (20004b2c <process_complete_packet+0x188>)
20004a64:	6818      	ldr	r0, [r3, #0]
20004a66:	2800      	cmp	r0, #0
20004a68:	dc02      	bgt.n	20004a70 <process_complete_packet+0xcc>
20004a6a:	9803      	ldr	r0, [sp, #12]
20004a6c:	f7ff ff78 	bl	20004960 <perform_update_and_reboot>
20004a70:	4c2f      	ldr	r4, [pc, #188]	@ (20004b30 <process_complete_packet+0x18c>)
20004a72:	f5c0 7280 	rsb	r2, r0, #256	@ 0x100
20004a76:	21ff      	movs	r1, #255	@ 0xff
20004a78:	4420      	add	r0, r4
20004a7a:	f7ff fa31 	bl	20003ee0 <memset>
20004a7e:	f44f 7280 	mov.w	r2, #256	@ 0x100
20004a82:	4621      	mov	r1, r4
20004a84:	4b28      	ldr	r3, [pc, #160]	@ (20004b28 <process_complete_packet+0x184>)
20004a86:	6818      	ldr	r0, [r3, #0]
20004a88:	f000 fa54 	bl	20004f34 <flash_range_program>
20004a8c:	e7ed      	b.n	20004a6a <process_complete_packet+0xc6>
20004a8e:	9b03      	ldr	r3, [sp, #12]
20004a90:	4a28      	ldr	r2, [pc, #160]	@ (20004b34 <process_complete_packet+0x190>)
20004a92:	5cd1      	ldrb	r1, [r2, r3]
20004a94:	9b03      	ldr	r3, [sp, #12]
20004a96:	3301      	adds	r3, #1
20004a98:	5cd2      	ldrb	r2, [r2, r3]
20004a9a:	ea42 2201 	orr.w	r2, r2, r1, lsl #8
20004a9e:	2300      	movs	r3, #0
20004aa0:	e00c      	b.n	20004abc <process_complete_packet+0x118>
20004aa2:	8921      	ldrh	r1, [r4, #8]
20004aa4:	9b03      	ldr	r3, [sp, #12]
20004aa6:	4a23      	ldr	r2, [pc, #140]	@ (20004b34 <process_complete_packet+0x190>)
20004aa8:	0a08      	lsrs	r0, r1, #8
20004aaa:	54d0      	strb	r0, [r2, r3]
20004aac:	9b03      	ldr	r3, [sp, #12]
20004aae:	3301      	adds	r3, #1
20004ab0:	54d1      	strb	r1, [r2, r3]
20004ab2:	2200      	movs	r2, #0
20004ab4:	4613      	mov	r3, r2
20004ab6:	e001      	b.n	20004abc <process_complete_packet+0x118>
20004ab8:	2200      	movs	r2, #0
20004aba:	2301      	movs	r3, #1
20004abc:	f245 51aa 	movw	r1, #21930	@ 0x55aa
20004ac0:	f8ad 1000 	strh.w	r1, [sp]
20004ac4:	f8ad 3002 	strh.w	r3, [sp, #2]
20004ac8:	2400      	movs	r4, #0
20004aca:	f8ad 4004 	strh.w	r4, [sp, #4]
20004ace:	f8ad 2006 	strh.w	r2, [sp, #6]
20004ad2:	2104      	movs	r1, #4
20004ad4:	4668      	mov	r0, sp
20004ad6:	f7ff ff37 	bl	20004948 <calc_crc>
20004ada:	f8ad 0008 	strh.w	r0, [sp, #8]
20004ade:	f64e 63ff 	movw	r3, #61183	@ 0xeeff
20004ae2:	f8ad 300a 	strh.w	r3, [sp, #10]
20004ae6:	4622      	mov	r2, r4
20004ae8:	e000      	b.n	20004aec <process_complete_packet+0x148>
20004aea:	3201      	adds	r2, #1
20004aec:	2a05      	cmp	r2, #5
20004aee:	dc19      	bgt.n	20004b24 <process_complete_packet+0x180>
20004af0:	ab04      	add	r3, sp, #16
20004af2:	eb03 0342 	add.w	r3, r3, r2, lsl #1
20004af6:	f833 4c10 	ldrh.w	r4, [r3, #-16]
20004afa:	490f      	ldr	r1, [pc, #60]	@ (20004b38 <process_complete_packet+0x194>)
20004afc:	f8b1 3080 	ldrh.w	r3, [r1, #128]	@ 0x80
20004b00:	b29b      	uxth	r3, r3
20004b02:	3301      	adds	r3, #1
20004b04:	f003 033f 	and.w	r3, r3, #63	@ 0x3f
20004b08:	f8b1 1082 	ldrh.w	r1, [r1, #130]	@ 0x82
20004b0c:	b289      	uxth	r1, r1
20004b0e:	428b      	cmp	r3, r1
20004b10:	d0eb      	beq.n	20004aea <process_complete_packet+0x146>
20004b12:	4909      	ldr	r1, [pc, #36]	@ (20004b38 <process_complete_packet+0x194>)
20004b14:	f8b1 0080 	ldrh.w	r0, [r1, #128]	@ 0x80
20004b18:	b280      	uxth	r0, r0
20004b1a:	f821 4010 	strh.w	r4, [r1, r0, lsl #1]
20004b1e:	f8a1 3080 	strh.w	r3, [r1, #128]	@ 0x80
20004b22:	e7e2      	b.n	20004aea <process_complete_packet+0x146>
20004b24:	b004      	add	sp, #16
20004b26:	bd70      	pop	{r4, r5, r6, pc}
20004b28:	20005a48 	.word	0x20005a48
20004b2c:	2000742c 	.word	0x2000742c
20004b30:	20007430 	.word	0x20007430
20004b34:	2006cf14 	.word	0x2006cf14
20004b38:	2006ef98 	.word	0x2006ef98

20004b3c <rga_process_20ms>:
20004b3c:	b508      	push	{r3, lr}
20004b3e:	4b27      	ldr	r3, [pc, #156]	@ (20004bdc <rga_process_20ms+0xa0>)
20004b40:	f8b3 2080 	ldrh.w	r2, [r3, #128]	@ 0x80
20004b44:	b292      	uxth	r2, r2
20004b46:	f8b3 3082 	ldrh.w	r3, [r3, #130]	@ 0x82
20004b4a:	b29b      	uxth	r3, r3
20004b4c:	429a      	cmp	r2, r3
20004b4e:	d043      	beq.n	20004bd8 <rga_process_20ms+0x9c>
20004b50:	4a22      	ldr	r2, [pc, #136]	@ (20004bdc <rga_process_20ms+0xa0>)
20004b52:	f8b2 3082 	ldrh.w	r3, [r2, #130]	@ 0x82
20004b56:	b29b      	uxth	r3, r3
20004b58:	f832 0013 	ldrh.w	r0, [r2, r3, lsl #1]
20004b5c:	b280      	uxth	r0, r0
20004b5e:	f8b2 3082 	ldrh.w	r3, [r2, #130]	@ 0x82
20004b62:	b29b      	uxth	r3, r3
20004b64:	3301      	adds	r3, #1
20004b66:	f003 033f 	and.w	r3, r3, #63	@ 0x3f
20004b6a:	f8a2 3082 	strh.w	r3, [r2, #130]	@ 0x82
20004b6e:	4b1c      	ldr	r3, [pc, #112]	@ (20004be0 <rga_process_20ms+0xa4>)
20004b70:	781b      	ldrb	r3, [r3, #0]
20004b72:	b9bb      	cbnz	r3, 20004ba4 <rga_process_20ms+0x68>
20004b74:	4a1b      	ldr	r2, [pc, #108]	@ (20004be4 <rga_process_20ms+0xa8>)
20004b76:	6813      	ldr	r3, [r2, #0]
20004b78:	1c59      	adds	r1, r3, #1
20004b7a:	6011      	str	r1, [r2, #0]
20004b7c:	4a1a      	ldr	r2, [pc, #104]	@ (20004be8 <rga_process_20ms+0xac>)
20004b7e:	f822 0013 	strh.w	r0, [r2, r3, lsl #1]
20004b82:	2901      	cmp	r1, #1
20004b84:	dd1c      	ble.n	20004bc0 <rga_process_20ms+0x84>
20004b86:	7893      	ldrb	r3, [r2, #2]
20004b88:	3306      	adds	r3, #6
20004b8a:	4299      	cmp	r1, r3
20004b8c:	da1a      	bge.n	20004bc4 <rga_process_20ms+0x88>
20004b8e:	4b15      	ldr	r3, [pc, #84]	@ (20004be4 <rga_process_20ms+0xa8>)
20004b90:	681b      	ldr	r3, [r3, #0]
20004b92:	2b07      	cmp	r3, #7
20004b94:	ddd3      	ble.n	20004b3e <rga_process_20ms+0x2>
20004b96:	4b12      	ldr	r3, [pc, #72]	@ (20004be0 <rga_process_20ms+0xa4>)
20004b98:	2201      	movs	r2, #1
20004b9a:	701a      	strb	r2, [r3, #0]
20004b9c:	4b11      	ldr	r3, [pc, #68]	@ (20004be4 <rga_process_20ms+0xa8>)
20004b9e:	2200      	movs	r2, #0
20004ba0:	601a      	str	r2, [r3, #0]
20004ba2:	e7cc      	b.n	20004b3e <rga_process_20ms+0x2>
20004ba4:	f245 53aa 	movw	r3, #21930	@ 0x55aa
20004ba8:	4298      	cmp	r0, r3
20004baa:	d1c8      	bne.n	20004b3e <rga_process_20ms+0x2>
20004bac:	4a0d      	ldr	r2, [pc, #52]	@ (20004be4 <rga_process_20ms+0xa8>)
20004bae:	2300      	movs	r3, #0
20004bb0:	6013      	str	r3, [r2, #0]
20004bb2:	2101      	movs	r1, #1
20004bb4:	6011      	str	r1, [r2, #0]
20004bb6:	4a0c      	ldr	r2, [pc, #48]	@ (20004be8 <rga_process_20ms+0xac>)
20004bb8:	8010      	strh	r0, [r2, #0]
20004bba:	4a09      	ldr	r2, [pc, #36]	@ (20004be0 <rga_process_20ms+0xa4>)
20004bbc:	7013      	strb	r3, [r2, #0]
20004bbe:	e7be      	b.n	20004b3e <rga_process_20ms+0x2>
20004bc0:	2306      	movs	r3, #6
20004bc2:	e7e2      	b.n	20004b8a <rga_process_20ms+0x4e>
20004bc4:	4808      	ldr	r0, [pc, #32]	@ (20004be8 <rga_process_20ms+0xac>)
20004bc6:	f7ff feed 	bl	200049a4 <process_complete_packet>
20004bca:	4b05      	ldr	r3, [pc, #20]	@ (20004be0 <rga_process_20ms+0xa4>)
20004bcc:	2201      	movs	r2, #1
20004bce:	701a      	strb	r2, [r3, #0]
20004bd0:	4b04      	ldr	r3, [pc, #16]	@ (20004be4 <rga_process_20ms+0xa8>)
20004bd2:	2200      	movs	r2, #0
20004bd4:	601a      	str	r2, [r3, #0]
20004bd6:	e7da      	b.n	20004b8e <rga_process_20ms+0x52>
20004bd8:	bd08      	pop	{r3, pc}
20004bda:	bf00      	nop
20004bdc:	2006ef14 	.word	0x2006ef14
20004be0:	20005a4c 	.word	0x20005a4c
20004be4:	2006f01c 	.word	0x2006f01c
20004be8:	2006f020 	.word	0x2006f020

20004bec <mutex_try_enter>:
20004bec:	b500      	push	{lr}
20004bee:	4603      	mov	r3, r0
20004bf0:	6800      	ldr	r0, [r0, #0]
20004bf2:	f3ef 8210 	mrs	r2, PRIMASK
20004bf6:	b672      	cpsid	i
20004bf8:	e8d0 efcf 	ldaexb	lr, [r0]
20004bfc:	f05f 0c01 	movs.w	ip, #1
20004c00:	f1be 0f00 	cmp.w	lr, #0
20004c04:	d1f8      	bne.n	20004bf8 <mutex_try_enter+0xc>
20004c06:	e8c0 cf4e 	strexb	lr, ip, [r0]
20004c0a:	f1be 0f00 	cmp.w	lr, #0
20004c0e:	d1f3      	bne.n	20004bf8 <mutex_try_enter+0xc>
20004c10:	f3bf 8f5f 	dmb	sy
20004c14:	f993 0004 	ldrsb.w	r0, [r3, #4]
20004c18:	2800      	cmp	r0, #0
20004c1a:	db0a      	blt.n	20004c32 <mutex_try_enter+0x46>
20004c1c:	b181      	cbz	r1, 20004c40 <mutex_try_enter+0x54>
20004c1e:	6008      	str	r0, [r1, #0]
20004c20:	2000      	movs	r0, #0
20004c22:	6819      	ldr	r1, [r3, #0]
20004c24:	2300      	movs	r3, #0
20004c26:	e8c1 3f8f 	stlb	r3, [r1]
20004c2a:	f382 8810 	msr	PRIMASK, r2
20004c2e:	f85d fb04 	ldr.w	pc, [sp], #4
20004c32:	f04f 4150 	mov.w	r1, #3489660928	@ 0xd0000000
20004c36:	f991 1000 	ldrsb.w	r1, [r1]
20004c3a:	7119      	strb	r1, [r3, #4]
20004c3c:	2001      	movs	r0, #1
20004c3e:	e7f0      	b.n	20004c22 <mutex_try_enter+0x36>
20004c40:	2000      	movs	r0, #0
20004c42:	e7ee      	b.n	20004c22 <mutex_try_enter+0x36>

20004c44 <mutex_enter_block_until>:
20004c44:	b5f8      	push	{r3, r4, r5, r6, r7, lr}
20004c46:	461e      	mov	r6, r3
20004c48:	6803      	ldr	r3, [r0, #0]
20004c4a:	2b00      	cmp	r3, #0
20004c4c:	d027      	beq.n	20004c9e <mutex_enter_block_until+0x5a>
20004c4e:	4604      	mov	r4, r0
20004c50:	4615      	mov	r5, r2
20004c52:	f04f 4350 	mov.w	r3, #3489660928	@ 0xd0000000
20004c56:	f993 7000 	ldrsb.w	r7, [r3]
20004c5a:	6821      	ldr	r1, [r4, #0]
20004c5c:	f3ef 8c10 	mrs	ip, PRIMASK
20004c60:	b672      	cpsid	i
20004c62:	e8d1 2fcf 	ldaexb	r2, [r1]
20004c66:	2301      	movs	r3, #1
20004c68:	2a00      	cmp	r2, #0
20004c6a:	d1fa      	bne.n	20004c62 <mutex_enter_block_until+0x1e>
20004c6c:	e8c1 3f42 	strexb	r2, r3, [r1]
20004c70:	2a00      	cmp	r2, #0
20004c72:	d1f6      	bne.n	20004c62 <mutex_enter_block_until+0x1e>
20004c74:	f3bf 8f5f 	dmb	sy
20004c78:	f994 e004 	ldrsb.w	lr, [r4, #4]
20004c7c:	f1be 0f00 	cmp.w	lr, #0
20004c80:	db13      	blt.n	20004caa <mutex_enter_block_until+0x66>
20004c82:	6822      	ldr	r2, [r4, #0]
20004c84:	2300      	movs	r3, #0
20004c86:	e8c2 3f8f 	stlb	r3, [r2]
20004c8a:	f38c 8810 	msr	PRIMASK, ip
20004c8e:	4628      	mov	r0, r5
20004c90:	4631      	mov	r1, r6
20004c92:	f7fc fd61 	bl	20001758 <best_effort_wfe_or_timeout>
20004c96:	2800      	cmp	r0, #0
20004c98:	d0df      	beq.n	20004c5a <mutex_enter_block_until+0x16>
20004c9a:	2000      	movs	r0, #0
20004c9c:	e00d      	b.n	20004cba <mutex_enter_block_until+0x76>
20004c9e:	4b07      	ldr	r3, [pc, #28]	@ (20004cbc <mutex_enter_block_until+0x78>)
20004ca0:	4a07      	ldr	r2, [pc, #28]	@ (20004cc0 <mutex_enter_block_until+0x7c>)
20004ca2:	21a6      	movs	r1, #166	@ 0xa6
20004ca4:	4807      	ldr	r0, [pc, #28]	@ (20004cc4 <mutex_enter_block_until+0x80>)
20004ca6:	f7fe fb6f 	bl	20003388 <__assert_func>
20004caa:	7127      	strb	r7, [r4, #4]
20004cac:	6822      	ldr	r2, [r4, #0]
20004cae:	2300      	movs	r3, #0
20004cb0:	e8c2 3f8f 	stlb	r3, [r2]
20004cb4:	f38c 8810 	msr	PRIMASK, ip
20004cb8:	2001      	movs	r0, #1
20004cba:	bdf8      	pop	{r3, r4, r5, r6, r7, pc}
20004cbc:	20005248 	.word	0x20005248
20004cc0:	200058a0 	.word	0x200058a0
20004cc4:	20005200 	.word	0x20005200

20004cc8 <mutex_try_enter_block_until>:
20004cc8:	b570      	push	{r4, r5, r6, lr}
20004cca:	b082      	sub	sp, #8
20004ccc:	4606      	mov	r6, r0
20004cce:	4615      	mov	r5, r2
20004cd0:	461c      	mov	r4, r3
20004cd2:	a901      	add	r1, sp, #4
20004cd4:	f7ff ff8a 	bl	20004bec <mutex_try_enter>
20004cd8:	b938      	cbnz	r0, 20004cea <mutex_try_enter_block_until+0x22>
20004cda:	f99d 2004 	ldrsb.w	r2, [sp, #4]
20004cde:	f04f 4350 	mov.w	r3, #3489660928	@ 0xd0000000
20004ce2:	f993 3000 	ldrsb.w	r3, [r3]
20004ce6:	429a      	cmp	r2, r3
20004ce8:	d101      	bne.n	20004cee <mutex_try_enter_block_until+0x26>
20004cea:	b002      	add	sp, #8
20004cec:	bd70      	pop	{r4, r5, r6, pc}
20004cee:	462a      	mov	r2, r5
20004cf0:	4623      	mov	r3, r4
20004cf2:	4630      	mov	r0, r6
20004cf4:	f7ff ffa6 	bl	20004c44 <mutex_enter_block_until>
20004cf8:	e7f7      	b.n	20004cea <mutex_try_enter_block_until+0x22>
	...

20004cfc <mutex_exit>:
20004cfc:	b508      	push	{r3, lr}
20004cfe:	6802      	ldr	r2, [r0, #0]
20004d00:	f3ef 8310 	mrs	r3, PRIMASK
20004d04:	b672      	cpsid	i
20004d06:	e8d2 cfcf 	ldaexb	ip, [r2]
20004d0a:	2101      	movs	r1, #1
20004d0c:	f1bc 0f00 	cmp.w	ip, #0
20004d10:	d1f9      	bne.n	20004d06 <mutex_exit+0xa>
20004d12:	e8c2 1f4c 	strexb	ip, r1, [r2]
20004d16:	f1bc 0f00 	cmp.w	ip, #0
20004d1a:	d1f4      	bne.n	20004d06 <mutex_exit+0xa>
20004d1c:	f3bf 8f5f 	dmb	sy
20004d20:	f990 2004 	ldrsb.w	r2, [r0, #4]
20004d24:	2a00      	cmp	r2, #0
20004d26:	db09      	blt.n	20004d3c <mutex_exit+0x40>
20004d28:	22ff      	movs	r2, #255	@ 0xff
20004d2a:	7102      	strb	r2, [r0, #4]
20004d2c:	6801      	ldr	r1, [r0, #0]
20004d2e:	2200      	movs	r2, #0
20004d30:	e8c1 2f8f 	stlb	r2, [r1]
20004d34:	f383 8810 	msr	PRIMASK, r3
20004d38:	bf40      	sev
20004d3a:	bd08      	pop	{r3, pc}
20004d3c:	4b02      	ldr	r3, [pc, #8]	@ (20004d48 <mutex_exit+0x4c>)
20004d3e:	4a03      	ldr	r2, [pc, #12]	@ (20004d4c <mutex_exit+0x50>)
20004d40:	21d5      	movs	r1, #213	@ 0xd5
20004d42:	4803      	ldr	r0, [pc, #12]	@ (20004d50 <mutex_exit+0x54>)
20004d44:	f7fe fb20 	bl	20003388 <__assert_func>
20004d48:	2000525c 	.word	0x2000525c
20004d4c:	20005894 	.word	0x20005894
20004d50:	20005200 	.word	0x20005200

20004d54 <flash_init_boot2_copyout>:
20004d54:	4b0a      	ldr	r3, [pc, #40]	@ (20004d80 <flash_init_boot2_copyout+0x2c>)
20004d56:	781b      	ldrb	r3, [r3, #0]
20004d58:	b983      	cbnz	r3, 20004d7c <flash_init_boot2_copyout+0x28>
20004d5a:	2200      	movs	r2, #0
20004d5c:	e009      	b.n	20004d72 <flash_init_boot2_copyout+0x1e>
20004d5e:	0093      	lsls	r3, r2, #2
20004d60:	f103 4380 	add.w	r3, r3, #1073741824	@ 0x40000000
20004d64:	f503 2360 	add.w	r3, r3, #917504	@ 0xe0000
20004d68:	6819      	ldr	r1, [r3, #0]
20004d6a:	4b06      	ldr	r3, [pc, #24]	@ (20004d84 <flash_init_boot2_copyout+0x30>)
20004d6c:	f843 1022 	str.w	r1, [r3, r2, lsl #2]
20004d70:	3201      	adds	r2, #1
20004d72:	2a3f      	cmp	r2, #63	@ 0x3f
20004d74:	ddf3      	ble.n	20004d5e <flash_init_boot2_copyout+0xa>
20004d76:	4b02      	ldr	r3, [pc, #8]	@ (20004d80 <flash_init_boot2_copyout+0x2c>)
20004d78:	2201      	movs	r2, #1
20004d7a:	701a      	strb	r2, [r3, #0]
20004d7c:	4770      	bx	lr
20004d7e:	bf00      	nop
20004d80:	20070044 	.word	0x20070044
20004d84:	20006d4c 	.word	0x20006d4c

20004d88 <flash_enable_xip_via_boot2>:
20004d88:	b508      	push	{r3, lr}
20004d8a:	4b01      	ldr	r3, [pc, #4]	@ (20004d90 <flash_enable_xip_via_boot2+0x8>)
20004d8c:	4798      	blx	r3
20004d8e:	bd08      	pop	{r3, pc}
20004d90:	20006d4d 	.word	0x20006d4d

20004d94 <flash_rp2350_save_qmi_cs1>:
20004d94:	4b03      	ldr	r3, [pc, #12]	@ (20004da4 <flash_rp2350_save_qmi_cs1+0x10>)
20004d96:	6a1a      	ldr	r2, [r3, #32]
20004d98:	6002      	str	r2, [r0, #0]
20004d9a:	6a9a      	ldr	r2, [r3, #40]	@ 0x28
20004d9c:	6042      	str	r2, [r0, #4]
20004d9e:	6a5b      	ldr	r3, [r3, #36]	@ 0x24
20004da0:	6083      	str	r3, [r0, #8]
20004da2:	4770      	bx	lr
20004da4:	400d0000 	.word	0x400d0000

20004da8 <flash_devinfo_ptr>:
20004da8:	b508      	push	{r3, lr}
20004daa:	2300      	movs	r3, #0
20004dac:	8adb      	ldrh	r3, [r3, #22]
20004dae:	2140      	movs	r1, #64	@ 0x40
20004db0:	f244 4046 	movw	r0, #17478	@ 0x4446
20004db4:	4798      	blx	r3
20004db6:	b108      	cbz	r0, 20004dbc <flash_devinfo_ptr+0x14>
20004db8:	6800      	ldr	r0, [r0, #0]
20004dba:	bd08      	pop	{r3, pc}
20004dbc:	4b03      	ldr	r3, [pc, #12]	@ (20004dcc <flash_devinfo_ptr+0x24>)
20004dbe:	4a04      	ldr	r2, [pc, #16]	@ (20004dd0 <flash_devinfo_ptr+0x28>)
20004dc0:	f44f 7193 	mov.w	r1, #294	@ 0x126
20004dc4:	4803      	ldr	r0, [pc, #12]	@ (20004dd4 <flash_devinfo_ptr+0x2c>)
20004dc6:	f7fe fadf 	bl	20003388 <__assert_func>
20004dca:	bf00      	nop
20004dcc:	200055ac 	.word	0x200055ac
20004dd0:	200059d4 	.word	0x200059d4
20004dd4:	200055b0 	.word	0x200055b0

20004dd8 <flash_devinfo_get_cs_size>:
20004dd8:	b510      	push	{r4, lr}
20004dda:	4604      	mov	r4, r0
20004ddc:	f7ff ffe4 	bl	20004da8 <flash_devinfo_ptr>
20004de0:	b11c      	cbz	r4, 20004dea <flash_devinfo_get_cs_size+0x12>
20004de2:	8800      	ldrh	r0, [r0, #0]
20004de4:	f3c0 3003 	ubfx	r0, r0, #12, #4
20004de8:	bd10      	pop	{r4, pc}
20004dea:	200c      	movs	r0, #12
20004dec:	e7fc      	b.n	20004de8 <flash_devinfo_get_cs_size+0x10>
	...

20004df0 <flash_rp2350_restore_qmi_cs1>:
20004df0:	b510      	push	{r4, lr}
20004df2:	4604      	mov	r4, r0
20004df4:	2001      	movs	r0, #1
20004df6:	f7ff ffef 	bl	20004dd8 <flash_devinfo_get_cs_size>
20004dfa:	b938      	cbnz	r0, 20004e0c <flash_rp2350_restore_qmi_cs1+0x1c>
20004dfc:	6822      	ldr	r2, [r4, #0]
20004dfe:	4b07      	ldr	r3, [pc, #28]	@ (20004e1c <flash_rp2350_restore_qmi_cs1+0x2c>)
20004e00:	621a      	str	r2, [r3, #32]
20004e02:	6862      	ldr	r2, [r4, #4]
20004e04:	629a      	str	r2, [r3, #40]	@ 0x28
20004e06:	68a2      	ldr	r2, [r4, #8]
20004e08:	625a      	str	r2, [r3, #36]	@ 0x24
20004e0a:	bd10      	pop	{r4, pc}
20004e0c:	4b03      	ldr	r3, [pc, #12]	@ (20004e1c <flash_rp2350_restore_qmi_cs1+0x2c>)
20004e0e:	f44f 5280 	mov.w	r2, #4096	@ 0x1000
20004e12:	62da      	str	r2, [r3, #44]	@ 0x2c
20004e14:	f24a 0202 	movw	r2, #40962	@ 0xa002
20004e18:	631a      	str	r2, [r3, #48]	@ 0x30
20004e1a:	e7f6      	b.n	20004e0a <flash_rp2350_restore_qmi_cs1+0x1a>
20004e1c:	400d0000 	.word	0x400d0000

20004e20 <flash_range_erase>:
20004e20:	e92d 47f0 	stmdb	sp!, {r4, r5, r6, r7, r8, r9, sl, lr}
20004e24:	b084      	sub	sp, #16
20004e26:	180b      	adds	r3, r1, r0
20004e28:	f1b3 7f80 	cmp.w	r3, #16777216	@ 0x1000000
20004e2c:	d857      	bhi.n	20004ede <flash_range_erase+0xbe>
20004e2e:	4607      	mov	r7, r0
20004e30:	4688      	mov	r8, r1
20004e32:	2300      	movs	r3, #0
20004e34:	8ada      	ldrh	r2, [r3, #22]
20004e36:	2300      	movs	r3, #0
20004e38:	e843 f300 	tt	r3, r3
20004e3c:	f413 0f80 	tst.w	r3, #4194304	@ 0x400000
20004e40:	d153      	bne.n	20004eea <flash_range_erase+0xca>
20004e42:	2110      	movs	r1, #16
20004e44:	f244 6049 	movw	r0, #17993	@ 0x4649
20004e48:	4790      	blx	r2
20004e4a:	4605      	mov	r5, r0
20004e4c:	2300      	movs	r3, #0
20004e4e:	8ada      	ldrh	r2, [r3, #22]
20004e50:	2300      	movs	r3, #0
20004e52:	e843 f300 	tt	r3, r3
20004e56:	f413 0f80 	tst.w	r3, #4194304	@ 0x400000
20004e5a:	d14c      	bne.n	20004ef6 <flash_range_erase+0xd6>
20004e5c:	2110      	movs	r1, #16
20004e5e:	f645 0045 	movw	r0, #22597	@ 0x5845
20004e62:	4790      	blx	r2
20004e64:	4604      	mov	r4, r0
20004e66:	2300      	movs	r3, #0
20004e68:	8ada      	ldrh	r2, [r3, #22]
20004e6a:	2300      	movs	r3, #0
20004e6c:	e843 f300 	tt	r3, r3
20004e70:	f413 0f80 	tst.w	r3, #4194304	@ 0x400000
20004e74:	d145      	bne.n	20004f02 <flash_range_erase+0xe2>
20004e76:	2110      	movs	r1, #16
20004e78:	f244 5052 	movw	r0, #17746	@ 0x4552
20004e7c:	4790      	blx	r2
20004e7e:	4606      	mov	r6, r0
20004e80:	2300      	movs	r3, #0
20004e82:	8ada      	ldrh	r2, [r3, #22]
20004e84:	2300      	movs	r3, #0
20004e86:	e843 f300 	tt	r3, r3
20004e8a:	f413 0f80 	tst.w	r3, #4194304	@ 0x400000
20004e8e:	d13e      	bne.n	20004f0e <flash_range_erase+0xee>
20004e90:	2110      	movs	r1, #16
20004e92:	f244 3046 	movw	r0, #17222	@ 0x4346
20004e96:	4790      	blx	r2
20004e98:	4682      	mov	sl, r0
20004e9a:	2d00      	cmp	r5, #0
20004e9c:	d03c      	beq.n	20004f18 <flash_range_erase+0xf8>
20004e9e:	2c00      	cmp	r4, #0
20004ea0:	d03a      	beq.n	20004f18 <flash_range_erase+0xf8>
20004ea2:	2e00      	cmp	r6, #0
20004ea4:	d038      	beq.n	20004f18 <flash_range_erase+0xf8>
20004ea6:	2800      	cmp	r0, #0
20004ea8:	d036      	beq.n	20004f18 <flash_range_erase+0xf8>
20004eaa:	f7ff ff53 	bl	20004d54 <flash_init_boot2_copyout>
20004eae:	f000 f8dd 	bl	2000506c <xip_cache_clean_all>
20004eb2:	f10d 0904 	add.w	r9, sp, #4
20004eb6:	4648      	mov	r0, r9
20004eb8:	f7ff ff6c 	bl	20004d94 <flash_rp2350_save_qmi_cs1>
20004ebc:	47a8      	blx	r5
20004ebe:	47a0      	blx	r4
20004ec0:	23d8      	movs	r3, #216	@ 0xd8
20004ec2:	f44f 3280 	mov.w	r2, #65536	@ 0x10000
20004ec6:	4641      	mov	r1, r8
20004ec8:	4638      	mov	r0, r7
20004eca:	47b0      	blx	r6
20004ecc:	47d0      	blx	sl
20004ece:	f7ff ff5b 	bl	20004d88 <flash_enable_xip_via_boot2>
20004ed2:	4648      	mov	r0, r9
20004ed4:	f7ff ff8c 	bl	20004df0 <flash_rp2350_restore_qmi_cs1>
20004ed8:	b004      	add	sp, #16
20004eda:	e8bd 87f0 	ldmia.w	sp!, {r4, r5, r6, r7, r8, r9, sl, pc}
20004ede:	4b11      	ldr	r3, [pc, #68]	@ (20004f24 <flash_range_erase+0x104>)
20004ee0:	4a11      	ldr	r2, [pc, #68]	@ (20004f28 <flash_range_erase+0x108>)
20004ee2:	2174      	movs	r1, #116	@ 0x74
20004ee4:	4811      	ldr	r0, [pc, #68]	@ (20004f2c <flash_range_erase+0x10c>)
20004ee6:	f7fe fa4f 	bl	20003388 <__assert_func>
20004eea:	2104      	movs	r1, #4
20004eec:	f244 6049 	movw	r0, #17993	@ 0x4649
20004ef0:	4790      	blx	r2
20004ef2:	4605      	mov	r5, r0
20004ef4:	e7aa      	b.n	20004e4c <flash_range_erase+0x2c>
20004ef6:	2104      	movs	r1, #4
20004ef8:	f645 0045 	movw	r0, #22597	@ 0x5845
20004efc:	4790      	blx	r2
20004efe:	4604      	mov	r4, r0
20004f00:	e7b1      	b.n	20004e66 <flash_range_erase+0x46>
20004f02:	2104      	movs	r1, #4
20004f04:	f244 5052 	movw	r0, #17746	@ 0x4552
20004f08:	4790      	blx	r2
20004f0a:	4606      	mov	r6, r0
20004f0c:	e7b8      	b.n	20004e80 <flash_range_erase+0x60>
20004f0e:	2104      	movs	r1, #4
20004f10:	f244 3046 	movw	r0, #17222	@ 0x4346
20004f14:	4790      	blx	r2
20004f16:	e7bf      	b.n	20004e98 <flash_range_erase+0x78>
20004f18:	4b05      	ldr	r3, [pc, #20]	@ (20004f30 <flash_range_erase+0x110>)
20004f1a:	4a03      	ldr	r2, [pc, #12]	@ (20004f28 <flash_range_erase+0x108>)
20004f1c:	217c      	movs	r1, #124	@ 0x7c
20004f1e:	4803      	ldr	r0, [pc, #12]	@ (20004f2c <flash_range_erase+0x10c>)
20004f20:	f7fe fa32 	bl	20003388 <__assert_func>
20004f24:	200055fc 	.word	0x200055fc
20004f28:	200059fc 	.word	0x200059fc
20004f2c:	200055b0 	.word	0x200055b0
20004f30:	20005628 	.word	0x20005628

20004f34 <flash_range_program>:
20004f34:	e92d 4ff0 	stmdb	sp!, {r4, r5, r6, r7, r8, r9, sl, fp, lr}
20004f38:	b085      	sub	sp, #20
20004f3a:	1813      	adds	r3, r2, r0
20004f3c:	f1b3 7f80 	cmp.w	r3, #16777216	@ 0x1000000
20004f40:	d856      	bhi.n	20004ff0 <flash_range_program+0xbc>
20004f42:	4607      	mov	r7, r0
20004f44:	4689      	mov	r9, r1
20004f46:	4690      	mov	r8, r2
20004f48:	2300      	movs	r3, #0
20004f4a:	8ada      	ldrh	r2, [r3, #22]
20004f4c:	2300      	movs	r3, #0
20004f4e:	e843 f300 	tt	r3, r3
20004f52:	f413 0f80 	tst.w	r3, #4194304	@ 0x400000
20004f56:	d151      	bne.n	20004ffc <flash_range_program+0xc8>
20004f58:	2110      	movs	r1, #16
20004f5a:	f244 6049 	movw	r0, #17993	@ 0x4649
20004f5e:	4790      	blx	r2
20004f60:	4605      	mov	r5, r0
20004f62:	2300      	movs	r3, #0
20004f64:	8ada      	ldrh	r2, [r3, #22]
20004f66:	2300      	movs	r3, #0
20004f68:	e843 f300 	tt	r3, r3
20004f6c:	f413 0f80 	tst.w	r3, #4194304	@ 0x400000
20004f70:	d14a      	bne.n	20005008 <flash_range_program+0xd4>
20004f72:	2110      	movs	r1, #16
20004f74:	f645 0045 	movw	r0, #22597	@ 0x5845
20004f78:	4790      	blx	r2
20004f7a:	4604      	mov	r4, r0
20004f7c:	2300      	movs	r3, #0
20004f7e:	8ada      	ldrh	r2, [r3, #22]
20004f80:	2300      	movs	r3, #0
20004f82:	e843 f300 	tt	r3, r3
20004f86:	f413 0f80 	tst.w	r3, #4194304	@ 0x400000
20004f8a:	d143      	bne.n	20005014 <flash_range_program+0xe0>
20004f8c:	2110      	movs	r1, #16
20004f8e:	f245 0052 	movw	r0, #20562	@ 0x5052
20004f92:	4790      	blx	r2
20004f94:	4606      	mov	r6, r0
20004f96:	2300      	movs	r3, #0
20004f98:	8ada      	ldrh	r2, [r3, #22]
20004f9a:	2300      	movs	r3, #0
20004f9c:	e843 f300 	tt	r3, r3
20004fa0:	f413 0f80 	tst.w	r3, #4194304	@ 0x400000
20004fa4:	d13c      	bne.n	20005020 <flash_range_program+0xec>
20004fa6:	2110      	movs	r1, #16
20004fa8:	f244 3046 	movw	r0, #17222	@ 0x4346
20004fac:	4790      	blx	r2
20004fae:	4682      	mov	sl, r0
20004fb0:	2d00      	cmp	r5, #0
20004fb2:	d03a      	beq.n	2000502a <flash_range_program+0xf6>
20004fb4:	2c00      	cmp	r4, #0
20004fb6:	d038      	beq.n	2000502a <flash_range_program+0xf6>
20004fb8:	2e00      	cmp	r6, #0
20004fba:	d036      	beq.n	2000502a <flash_range_program+0xf6>
20004fbc:	2800      	cmp	r0, #0
20004fbe:	d034      	beq.n	2000502a <flash_range_program+0xf6>
20004fc0:	f7ff fec8 	bl	20004d54 <flash_init_boot2_copyout>
20004fc4:	f000 f852 	bl	2000506c <xip_cache_clean_all>
20004fc8:	f10d 0b04 	add.w	fp, sp, #4
20004fcc:	4658      	mov	r0, fp
20004fce:	f7ff fee1 	bl	20004d94 <flash_rp2350_save_qmi_cs1>
20004fd2:	47a8      	blx	r5
20004fd4:	47a0      	blx	r4
20004fd6:	4642      	mov	r2, r8
20004fd8:	4649      	mov	r1, r9
20004fda:	4638      	mov	r0, r7
20004fdc:	47b0      	blx	r6
20004fde:	47d0      	blx	sl
20004fe0:	f7ff fed2 	bl	20004d88 <flash_enable_xip_via_boot2>
20004fe4:	4658      	mov	r0, fp
20004fe6:	f7ff ff03 	bl	20004df0 <flash_rp2350_restore_qmi_cs1>
20004fea:	b005      	add	sp, #20
20004fec:	e8bd 8ff0 	ldmia.w	sp!, {r4, r5, r6, r7, r8, r9, sl, fp, pc}
20004ff0:	4b11      	ldr	r3, [pc, #68]	@ (20005038 <flash_range_program+0x104>)
20004ff2:	4a12      	ldr	r2, [pc, #72]	@ (2000503c <flash_range_program+0x108>)
20004ff4:	2199      	movs	r1, #153	@ 0x99
20004ff6:	4812      	ldr	r0, [pc, #72]	@ (20005040 <flash_range_program+0x10c>)
20004ff8:	f7fe f9c6 	bl	20003388 <__assert_func>
20004ffc:	2104      	movs	r1, #4
20004ffe:	f244 6049 	movw	r0, #17993	@ 0x4649
20005002:	4790      	blx	r2
20005004:	4605      	mov	r5, r0
20005006:	e7ac      	b.n	20004f62 <flash_range_program+0x2e>
20005008:	2104      	movs	r1, #4
2000500a:	f645 0045 	movw	r0, #22597	@ 0x5845
2000500e:	4790      	blx	r2
20005010:	4604      	mov	r4, r0
20005012:	e7b3      	b.n	20004f7c <flash_range_program+0x48>
20005014:	2104      	movs	r1, #4
20005016:	f245 0052 	movw	r0, #20562	@ 0x5052
2000501a:	4790      	blx	r2
2000501c:	4606      	mov	r6, r0
2000501e:	e7ba      	b.n	20004f96 <flash_range_program+0x62>
20005020:	2104      	movs	r1, #4
20005022:	f244 3046 	movw	r0, #17222	@ 0x4346
20005026:	4790      	blx	r2
20005028:	e7c1      	b.n	20004fae <flash_range_program+0x7a>
2000502a:	4b06      	ldr	r3, [pc, #24]	@ (20005044 <flash_range_program+0x110>)
2000502c:	4a03      	ldr	r2, [pc, #12]	@ (2000503c <flash_range_program+0x108>)
2000502e:	21a1      	movs	r1, #161	@ 0xa1
20005030:	4803      	ldr	r0, [pc, #12]	@ (20005040 <flash_range_program+0x10c>)
20005032:	f7fe f9a9 	bl	20003388 <__assert_func>
20005036:	bf00      	nop
20005038:	200055fc 	.word	0x200055fc
2000503c:	200059e8 	.word	0x200059e8
20005040:	200055b0 	.word	0x200055b0
20005044:	20005690 	.word	0x20005690

20005048 <xip_cache_maintain>:
20005048:	4401      	add	r1, r0
2000504a:	e007      	b.n	2000505c <xip_cache_maintain+0x14>
2000504c:	1883      	adds	r3, r0, r2
2000504e:	f103 53c0 	add.w	r3, r3, #402653184	@ 0x18000000
20005052:	f04f 0c00 	mov.w	ip, #0
20005056:	f883 c000 	strb.w	ip, [r3]
2000505a:	3008      	adds	r0, #8
2000505c:	4288      	cmp	r0, r1
2000505e:	d3f5      	bcc.n	2000504c <xip_cache_maintain+0x4>
20005060:	f3bf 8f4f 	dsb	sy
20005064:	f3bf 8f6f 	isb	sy
20005068:	4770      	bx	lr
	...

2000506c <xip_cache_clean_all>:
2000506c:	b508      	push	{r3, lr}
2000506e:	2201      	movs	r2, #1
20005070:	f44f 4180 	mov.w	r1, #16384	@ 0x4000
20005074:	4801      	ldr	r0, [pc, #4]	@ (2000507c <xip_cache_clean_all+0x10>)
20005076:	f7ff ffe7 	bl	20005048 <xip_cache_maintain>
2000507a:	bd08      	pop	{r3, pc}
2000507c:	03ffc000 	.word	0x03ffc000
20005080:	74737953 	.word	0x74737953
20005084:	63206d65 	.word	0x63206d65
20005088:	6b636f6c 	.word	0x6b636f6c
2000508c:	20666f20 	.word	0x20666f20
20005090:	6b207525 	.word	0x6b207525
20005094:	63207a48 	.word	0x63207a48
20005098:	6f6e6e61 	.word	0x6f6e6e61
2000509c:	65622074 	.word	0x65622074
200050a0:	61786520 	.word	0x61786520
200050a4:	796c7463 	.word	0x796c7463
200050a8:	68636120 	.word	0x68636120
200050ac:	65766569 	.word	0x65766569
200050b0:	00000064 	.word	0x00000064
200050b4:	69616863 	.word	0x69616863
200050b8:	6f745f6e 	.word	0x6f745f6e
200050bc:	203d3c20 	.word	0x203d3c20
200050c0:	5f4d554e 	.word	0x5f4d554e
200050c4:	5f414d44 	.word	0x5f414d44
200050c8:	4e414843 	.word	0x4e414843
200050cc:	534c454e 	.word	0x534c454e
200050d0:	00000000 	.word	0x00000000
200050d4:	552f3a43 	.word	0x552f3a43
200050d8:	73726573 	.word	0x73726573
200050dc:	616c632f 	.word	0x616c632f
200050e0:	2e2f6475 	.word	0x2e2f6475
200050e4:	6f636970 	.word	0x6f636970
200050e8:	6b64732d 	.word	0x6b64732d
200050ec:	6b64732f 	.word	0x6b64732f
200050f0:	312e322f 	.word	0x312e322f
200050f4:	732f312e 	.word	0x732f312e
200050f8:	722f6372 	.word	0x722f6372
200050fc:	635f3270 	.word	0x635f3270
20005100:	6f6d6d6f 	.word	0x6f6d6d6f
20005104:	61682f6e 	.word	0x61682f6e
20005108:	61776472 	.word	0x61776472
2000510c:	645f6572 	.word	0x645f6572
20005110:	692f616d 	.word	0x692f616d
20005114:	756c636e 	.word	0x756c636e
20005118:	682f6564 	.word	0x682f6564
2000511c:	77647261 	.word	0x77647261
20005120:	2f657261 	.word	0x2f657261
20005124:	2e616d64 	.word	0x2e616d64
20005128:	00000068 	.word	0x00000068
2000512c:	05a022b8 	.word	0x05a022b8
20005130:	0000001e 	.word	0x0000001e
20005134:	2a2a2a0a 	.word	0x2a2a2a0a
20005138:	4e415020 	.word	0x4e415020
2000513c:	2a204349 	.word	0x2a204349
20005140:	000a2a2a 	.word	0x000a2a2a
20005144:	0000000a 	.word	0x0000000a
20005148:	63317830 	.word	0x63317830
2000514c:	203d3d20 	.word	0x203d3d20
20005150:	6e692a28 	.word	0x6e692a28
20005154:	3e297473 	.word	0x3e297473
20005158:	7531313e 	.word	0x7531313e
2000515c:	00000000 	.word	0x00000000
20005160:	552f3a43 	.word	0x552f3a43
20005164:	73726573 	.word	0x73726573
20005168:	616c632f 	.word	0x616c632f
2000516c:	2e2f6475 	.word	0x2e2f6475
20005170:	6f636970 	.word	0x6f636970
20005174:	6b64732d 	.word	0x6b64732d
20005178:	6b64732f 	.word	0x6b64732f
2000517c:	312e322f 	.word	0x312e322f
20005180:	732f312e 	.word	0x732f312e
20005184:	722f6372 	.word	0x722f6372
20005188:	635f3270 	.word	0x635f3270
2000518c:	6f6d6d6f 	.word	0x6f6d6d6f
20005190:	61682f6e 	.word	0x61682f6e
20005194:	61776472 	.word	0x61776472
20005198:	695f6572 	.word	0x695f6572
2000519c:	692f7172 	.word	0x692f7172
200051a0:	632e7172 	.word	0x632e7172
200051a4:	00000000 	.word	0x00000000
200051a8:	72727563 	.word	0x72727563
200051ac:	20746e65 	.word	0x20746e65
200051b0:	5f203d3d 	.word	0x5f203d3d
200051b4:	686e755f 	.word	0x686e755f
200051b8:	6c646e61 	.word	0x6c646e61
200051bc:	755f6465 	.word	0x755f6465
200051c0:	5f726573 	.word	0x5f726573
200051c4:	20717269 	.word	0x20717269
200051c8:	63207c7c 	.word	0x63207c7c
200051cc:	65727275 	.word	0x65727275
200051d0:	3d20746e 	.word	0x3d20746e
200051d4:	6168203d 	.word	0x6168203d
200051d8:	656c646e 	.word	0x656c646e
200051dc:	00000072 	.word	0x00000072
200051e0:	3d3d2031 	.word	0x3d3d2031
200051e4:	69752820 	.word	0x69752820
200051e8:	7470746e 	.word	0x7470746e
200051ec:	29745f72 	.word	0x29745f72
200051f0:	733e2d6c 	.word	0x733e2d6c
200051f4:	5f6e6970 	.word	0x5f6e6970
200051f8:	6b636f6c 	.word	0x6b636f6c
200051fc:	00000000 	.word	0x00000000
20005200:	552f3a43 	.word	0x552f3a43
20005204:	73726573 	.word	0x73726573
20005208:	616c632f 	.word	0x616c632f
2000520c:	2e2f6475 	.word	0x2e2f6475
20005210:	6f636970 	.word	0x6f636970
20005214:	6b64732d 	.word	0x6b64732d
20005218:	6b64732f 	.word	0x6b64732f
2000521c:	312e322f 	.word	0x312e322f
20005220:	732f312e 	.word	0x732f312e
20005224:	632f6372 	.word	0x632f6372
20005228:	6f6d6d6f 	.word	0x6f6d6d6f
2000522c:	69702f6e 	.word	0x69702f6e
20005230:	735f6f63 	.word	0x735f6f63
20005234:	2f636e79 	.word	0x2f636e79
20005238:	6574756d 	.word	0x6574756d
2000523c:	00632e78 	.word	0x00632e78
20005240:	61746f74 	.word	0x61746f74
20005244:	0000006c 	.word	0x0000006c
20005248:	2d78746d 	.word	0x2d78746d
2000524c:	726f633e 	.word	0x726f633e
20005250:	70732e65 	.word	0x70732e65
20005254:	6c5f6e69 	.word	0x6c5f6e69
20005258:	006b636f 	.word	0x006b636f
2000525c:	6b636f6c 	.word	0x6b636f6c
20005260:	5f73695f 	.word	0x5f73695f
20005264:	656e776f 	.word	0x656e776f
20005268:	64695f72 	.word	0x64695f72
2000526c:	6c61765f 	.word	0x6c61765f
20005270:	6d286469 	.word	0x6d286469
20005274:	3e2d7874 	.word	0x3e2d7874
20005278:	656e776f 	.word	0x656e776f
2000527c:	00002972 	.word	0x00002972
20005280:	2d78746d 	.word	0x2d78746d
20005284:	746e653e 	.word	0x746e653e
20005288:	635f7265 	.word	0x635f7265
2000528c:	746e756f 	.word	0x746e756f
20005290:	00000000 	.word	0x00000000
20005294:	6c6f6f70 	.word	0x6c6f6f70
20005298:	69743e2d 	.word	0x69743e2d
2000529c:	5f72656d 	.word	0x5f72656d
200052a0:	72616c61 	.word	0x72616c61
200052a4:	756e5f6d 	.word	0x756e5f6d
200052a8:	3d3d206d 	.word	0x3d3d206d
200052ac:	6d697420 	.word	0x6d697420
200052b0:	615f7265 	.word	0x615f7265
200052b4:	6d72616c 	.word	0x6d72616c
200052b8:	6d756e5f 	.word	0x6d756e5f
200052bc:	00000000 	.word	0x00000000
200052c0:	552f3a43 	.word	0x552f3a43
200052c4:	73726573 	.word	0x73726573
200052c8:	616c632f 	.word	0x616c632f
200052cc:	2e2f6475 	.word	0x2e2f6475
200052d0:	6f636970 	.word	0x6f636970
200052d4:	6b64732d 	.word	0x6b64732d
200052d8:	6b64732f 	.word	0x6b64732f
200052dc:	312e322f 	.word	0x312e322f
200052e0:	732f312e 	.word	0x732f312e
200052e4:	632f6372 	.word	0x632f6372
200052e8:	6f6d6d6f 	.word	0x6f6d6d6f
200052ec:	69702f6e 	.word	0x69702f6e
200052f0:	745f6f63 	.word	0x745f6f63
200052f4:	2f656d69 	.word	0x2f656d69
200052f8:	656d6974 	.word	0x656d6974
200052fc:	0000632e 	.word	0x0000632e
20005300:	61666564 	.word	0x61666564
20005304:	5f746c75 	.word	0x5f746c75
20005308:	72616c61 	.word	0x72616c61
2000530c:	6f705f6d 	.word	0x6f705f6d
20005310:	695f6c6f 	.word	0x695f6c6f
20005314:	6974696e 	.word	0x6974696e
20005318:	7a696c61 	.word	0x7a696c61
2000531c:	29286465 	.word	0x29286465
20005320:	00000000 	.word	0x00000000
20005324:	64726148 	.word	0x64726148
20005328:	65726177 	.word	0x65726177
2000532c:	616c6120 	.word	0x616c6120
20005330:	25206d72 	.word	0x25206d72
20005334:	6c612064 	.word	0x6c612064
20005338:	64616572 	.word	0x64616572
2000533c:	6c632079 	.word	0x6c632079
20005340:	656d6961 	.word	0x656d6961
20005344:	00000064 	.word	0x00000064
20005348:	5f6f6376 	.word	0x5f6f6376
2000534c:	71657266 	.word	0x71657266
20005350:	203d3e20 	.word	0x203d3e20
20005354:	4f434950 	.word	0x4f434950
20005358:	4c4c505f 	.word	0x4c4c505f
2000535c:	4f43565f 	.word	0x4f43565f
20005360:	4e494d5f 	.word	0x4e494d5f
20005364:	4552465f 	.word	0x4552465f
20005368:	5a485f51 	.word	0x5a485f51
2000536c:	20262620 	.word	0x20262620
20005370:	5f6f6376 	.word	0x5f6f6376
20005374:	71657266 	.word	0x71657266
20005378:	203d3c20 	.word	0x203d3c20
2000537c:	4f434950 	.word	0x4f434950
20005380:	4c4c505f 	.word	0x4c4c505f
20005384:	4f43565f 	.word	0x4f43565f
20005388:	58414d5f 	.word	0x58414d5f
2000538c:	4552465f 	.word	0x4552465f
20005390:	5a485f51 	.word	0x5a485f51
20005394:	00000000 	.word	0x00000000
20005398:	552f3a43 	.word	0x552f3a43
2000539c:	73726573 	.word	0x73726573
200053a0:	616c632f 	.word	0x616c632f
200053a4:	2e2f6475 	.word	0x2e2f6475
200053a8:	6f636970 	.word	0x6f636970
200053ac:	6b64732d 	.word	0x6b64732d
200053b0:	6b64732f 	.word	0x6b64732f
200053b4:	312e322f 	.word	0x312e322f
200053b8:	732f312e 	.word	0x732f312e
200053bc:	722f6372 	.word	0x722f6372
200053c0:	635f3270 	.word	0x635f3270
200053c4:	6f6d6d6f 	.word	0x6f6d6d6f
200053c8:	61682f6e 	.word	0x61682f6e
200053cc:	61776472 	.word	0x61776472
200053d0:	705f6572 	.word	0x705f6572
200053d4:	702f6c6c 	.word	0x702f6c6c
200053d8:	632e6c6c 	.word	0x632e6c6c
200053dc:	00000000 	.word	0x00000000
200053e0:	69646266 	.word	0x69646266
200053e4:	3d3e2076 	.word	0x3d3e2076
200053e8:	20363120 	.word	0x20363120
200053ec:	66202626 	.word	0x66202626
200053f0:	76696462 	.word	0x76696462
200053f4:	203d3c20 	.word	0x203d3c20
200053f8:	00303233 	.word	0x00303233
200053fc:	736f7028 	.word	0x736f7028
20005400:	69645f74 	.word	0x69645f74
20005404:	3e203176 	.word	0x3e203176
20005408:	2031203d 	.word	0x2031203d
2000540c:	70202626 	.word	0x70202626
20005410:	5f74736f 	.word	0x5f74736f
20005414:	31766964 	.word	0x31766964
20005418:	203d3c20 	.word	0x203d3c20
2000541c:	26202937 	.word	0x26202937
20005420:	70282026 	.word	0x70282026
20005424:	5f74736f 	.word	0x5f74736f
20005428:	32766964 	.word	0x32766964
2000542c:	203d3e20 	.word	0x203d3e20
20005430:	26262031 	.word	0x26262031
20005434:	736f7020 	.word	0x736f7020
20005438:	69645f74 	.word	0x69645f74
2000543c:	3c203276 	.word	0x3c203276
20005440:	2937203d 	.word	0x2937203d
20005444:	00000000 	.word	0x00000000
20005448:	5f666572 	.word	0x5f666572
2000544c:	71657266 	.word	0x71657266
20005450:	203d3c20 	.word	0x203d3c20
20005454:	6f637628 	.word	0x6f637628
20005458:	6572665f 	.word	0x6572665f
2000545c:	202f2071 	.word	0x202f2071
20005460:	00293631 	.word	0x00293631
20005464:	75626544 	.word	0x75626544
20005468:	00000067 	.word	0x00000067
2000546c:	746f6f62 	.word	0x746f6f62
20005470:	32775f32 	.word	0x32775f32
20005474:	38307135 	.word	0x38307135
20005478:	00000030 	.word	0x00000030
2000547c:	00312e30 	.word	0x00312e30
20005480:	2e312e32 	.word	0x2e312e32
20005484:	00000031 	.word	0x00000031
20005488:	6f6d6970 	.word	0x6f6d6970
2000548c:	696e6f72 	.word	0x696e6f72
20005490:	6167705f 	.word	0x6167705f
20005494:	30353332 	.word	0x30353332
20005498:	00000000 	.word	0x00000000
2000549c:	6d617246 	.word	0x6d617246
200054a0:	72687465 	.word	0x72687465
200054a4:	7265776f 	.word	0x7265776f
200054a8:	6e65445f 	.word	0x6e65445f
200054ac:	00657369 	.word	0x00657369
200054b0:	20636544 	.word	0x20636544
200054b4:	32203432 	.word	0x32203432
200054b8:	00353230 	.word	0x00353230
200054bc:	2b696e66 	.word	0x2b696e66
200054c0:	00000000 	.word	0x00000000
200054c4:	00696e66 	.word	0x00696e66
200054c8:	006e616e 	.word	0x006e616e
200054cc:	2d696e66 	.word	0x2d696e66
200054d0:	00000000 	.word	0x00000000
200054d4:	7566202c 	.word	0x7566202c
200054d8:	6974636e 	.word	0x6974636e
200054dc:	203a6e6f 	.word	0x203a6e6f
200054e0:	00000000 	.word	0x00000000
200054e4:	65737361 	.word	0x65737361
200054e8:	6f697472 	.word	0x6f697472
200054ec:	2522206e 	.word	0x2522206e
200054f0:	66202273 	.word	0x66202273
200054f4:	656c6961 	.word	0x656c6961
200054f8:	66203a64 	.word	0x66203a64
200054fc:	20656c69 	.word	0x20656c69
20005500:	22732522 	.word	0x22732522
20005504:	696c202c 	.word	0x696c202c
20005508:	2520656e 	.word	0x2520656e
2000550c:	25732564 	.word	0x25732564
20005510:	00000a73 	.word	0x00000a73
20005514:	676f7270 	.word	0x676f7270
20005518:	2d6d6172 	.word	0x2d6d6172
2000551c:	6e656c3e 	.word	0x6e656c3e
20005520:	20687467 	.word	0x20687467
20005524:	50203d3c 	.word	0x50203d3c
20005528:	495f4f49 	.word	0x495f4f49
2000552c:	5254534e 	.word	0x5254534e
20005530:	49544355 	.word	0x49544355
20005534:	435f4e4f 	.word	0x435f4e4f
20005538:	544e554f 	.word	0x544e554f
2000553c:	00000000 	.word	0x00000000
20005540:	552f3a43 	.word	0x552f3a43
20005544:	73726573 	.word	0x73726573
20005548:	616c632f 	.word	0x616c632f
2000554c:	2e2f6475 	.word	0x2e2f6475
20005550:	6f636970 	.word	0x6f636970
20005554:	6b64732d 	.word	0x6b64732d
20005558:	6b64732f 	.word	0x6b64732f
2000555c:	312e322f 	.word	0x312e322f
20005560:	732f312e 	.word	0x732f312e
20005564:	722f6372 	.word	0x722f6372
20005568:	635f3270 	.word	0x635f3270
2000556c:	6f6d6d6f 	.word	0x6f6d6d6f
20005570:	61682f6e 	.word	0x61682f6e
20005574:	61776472 	.word	0x61776472
20005578:	705f6572 	.word	0x705f6572
2000557c:	702f6f69 	.word	0x702f6f69
20005580:	632e6f69 	.word	0x632e6f69
20005584:	00000000 	.word	0x00000000
20005588:	50206f4e 	.word	0x50206f4e
2000558c:	73204f49 	.word	0x73204f49
20005590:	65746174 	.word	0x65746174
20005594:	63616d20 	.word	0x63616d20
20005598:	656e6968 	.word	0x656e6968
2000559c:	72612073 	.word	0x72612073
200055a0:	76612065 	.word	0x76612065
200055a4:	616c6961 	.word	0x616c6961
200055a8:	00656c62 	.word	0x00656c62
200055ac:	00000070 	.word	0x00000070
200055b0:	552f3a43 	.word	0x552f3a43
200055b4:	73726573 	.word	0x73726573
200055b8:	616c632f 	.word	0x616c632f
200055bc:	2e2f6475 	.word	0x2e2f6475
200055c0:	6f636970 	.word	0x6f636970
200055c4:	6b64732d 	.word	0x6b64732d
200055c8:	6b64732f 	.word	0x6b64732f
200055cc:	312e322f 	.word	0x312e322f
200055d0:	732f312e 	.word	0x732f312e
200055d4:	722f6372 	.word	0x722f6372
200055d8:	635f3270 	.word	0x635f3270
200055dc:	6f6d6d6f 	.word	0x6f6d6d6f
200055e0:	61682f6e 	.word	0x61682f6e
200055e4:	61776472 	.word	0x61776472
200055e8:	665f6572 	.word	0x665f6572
200055ec:	6873616c 	.word	0x6873616c
200055f0:	616c662f 	.word	0x616c662f
200055f4:	632e6873 	.word	0x632e6873
200055f8:	00000000 	.word	0x00000000
200055fc:	73616c66 	.word	0x73616c66
20005600:	666f5f68 	.word	0x666f5f68
20005604:	2b207366 	.word	0x2b207366
20005608:	756f6320 	.word	0x756f6320
2000560c:	3c20746e 	.word	0x3c20746e
20005610:	4950203d 	.word	0x4950203d
20005614:	465f4f43 	.word	0x465f4f43
20005618:	4853414c 	.word	0x4853414c
2000561c:	5a49535f 	.word	0x5a49535f
20005620:	59425f45 	.word	0x59425f45
20005624:	00534554 	.word	0x00534554
20005628:	6e6e6f63 	.word	0x6e6e6f63
2000562c:	5f746365 	.word	0x5f746365
20005630:	65746e69 	.word	0x65746e69
20005634:	6c616e72 	.word	0x6c616e72
20005638:	616c665f 	.word	0x616c665f
2000563c:	665f6873 	.word	0x665f6873
20005640:	20636e75 	.word	0x20636e75
20005644:	66202626 	.word	0x66202626
20005648:	6873616c 	.word	0x6873616c
2000564c:	6978655f 	.word	0x6978655f
20005650:	69785f74 	.word	0x69785f74
20005654:	75665f70 	.word	0x75665f70
20005658:	2620636e 	.word	0x2620636e
2000565c:	6c662026 	.word	0x6c662026
20005660:	5f687361 	.word	0x5f687361
20005664:	676e6172 	.word	0x676e6172
20005668:	72655f65 	.word	0x72655f65
2000566c:	5f657361 	.word	0x5f657361
20005670:	636e7566 	.word	0x636e7566
20005674:	20262620 	.word	0x20262620
20005678:	73616c66 	.word	0x73616c66
2000567c:	6c665f68 	.word	0x6c665f68
20005680:	5f687375 	.word	0x5f687375
20005684:	68636163 	.word	0x68636163
20005688:	75665f65 	.word	0x75665f65
2000568c:	0000636e 	.word	0x0000636e
20005690:	6e6e6f63 	.word	0x6e6e6f63
20005694:	5f746365 	.word	0x5f746365
20005698:	65746e69 	.word	0x65746e69
2000569c:	6c616e72 	.word	0x6c616e72
200056a0:	616c665f 	.word	0x616c665f
200056a4:	665f6873 	.word	0x665f6873
200056a8:	20636e75 	.word	0x20636e75
200056ac:	66202626 	.word	0x66202626
200056b0:	6873616c 	.word	0x6873616c
200056b4:	6978655f 	.word	0x6978655f
200056b8:	69785f74 	.word	0x69785f74
200056bc:	75665f70 	.word	0x75665f70
200056c0:	2620636e 	.word	0x2620636e
200056c4:	6c662026 	.word	0x6c662026
200056c8:	5f687361 	.word	0x5f687361
200056cc:	676e6172 	.word	0x676e6172
200056d0:	72705f65 	.word	0x72705f65
200056d4:	6172676f 	.word	0x6172676f
200056d8:	75665f6d 	.word	0x75665f6d
200056dc:	2620636e 	.word	0x2620636e
200056e0:	6c662026 	.word	0x6c662026
200056e4:	5f687361 	.word	0x5f687361
200056e8:	73756c66 	.word	0x73756c66
200056ec:	61635f68 	.word	0x61635f68
200056f0:	5f656863 	.word	0x5f656863
200056f4:	636e7566 	.word	0x636e7566
200056f8:	00000000 	.word	0x00000000
200056fc:	6e6e6f63 	.word	0x6e6e6f63
20005700:	5f746365 	.word	0x5f746365
20005704:	65746e69 	.word	0x65746e69
20005708:	6c616e72 	.word	0x6c616e72
2000570c:	616c665f 	.word	0x616c665f
20005710:	665f6873 	.word	0x665f6873
20005714:	20636e75 	.word	0x20636e75
20005718:	66202626 	.word	0x66202626
2000571c:	6873616c 	.word	0x6873616c
20005720:	6978655f 	.word	0x6978655f
20005724:	69785f74 	.word	0x69785f74
20005728:	75665f70 	.word	0x75665f70
2000572c:	2620636e 	.word	0x2620636e
20005730:	6c662026 	.word	0x6c662026
20005734:	5f687361 	.word	0x5f687361
20005738:	73756c66 	.word	0x73756c66
2000573c:	61635f68 	.word	0x61635f68
20005740:	5f656863 	.word	0x5f656863
20005744:	636e7566 	.word	0x636e7566
20005748:	00000000 	.word	0x00000000
2000574c:	636f6c21 	.word	0x636f6c21
20005750:	74756f6b 	.word	0x74756f6b
20005754:	5f6e695f 	.word	0x5f6e695f
20005758:	676f7270 	.word	0x676f7270
2000575c:	73736572 	.word	0x73736572
20005760:	00000000 	.word	0x00000000
20005764:	552f3a43 	.word	0x552f3a43
20005768:	73726573 	.word	0x73726573
2000576c:	616c632f 	.word	0x616c632f
20005770:	2e2f6475 	.word	0x2e2f6475
20005774:	6f636970 	.word	0x6f636970
20005778:	6b64732d 	.word	0x6b64732d
2000577c:	6b64732f 	.word	0x6b64732f
20005780:	312e322f 	.word	0x312e322f
20005784:	732f312e 	.word	0x732f312e
20005788:	722f6372 	.word	0x722f6372
2000578c:	635f3270 	.word	0x635f3270
20005790:	6f6d6d6f 	.word	0x6f6d6d6f
20005794:	69702f6e 	.word	0x69702f6e
20005798:	6d5f6f63 	.word	0x6d5f6f63
2000579c:	69746c75 	.word	0x69746c75
200057a0:	65726f63 	.word	0x65726f63
200057a4:	6c756d2f 	.word	0x6c756d2f
200057a8:	6f636974 	.word	0x6f636974
200057ac:	632e6572 	.word	0x632e6572
200057b0:	00000000 	.word	0x00000000
200057b4:	74732821 	.word	0x74732821
200057b8:	5f6b6361 	.word	0x5f6b6361
200057bc:	657a6973 	.word	0x657a6973
200057c0:	7479625f 	.word	0x7479625f
200057c4:	26207365 	.word	0x26207365
200057c8:	29753320 	.word	0x29753320
200057cc:	00000000 	.word	0x00000000

200057d0 <rga_write_program>:
200057d0:	200057d8 0201ff0b                       .W. ....

200057d8 <rga_write_program_instructions>:
200057d8:	40082015 a0464078 a06b00a9 c001a007     . .@x@F...k.....
200057e8:	209580a0 0000a063                       ... c...

200057f0 <rga_read_program>:
200057f0:	200057f8 0201ff0b                       .W. ....

200057f8 <rga_read_program_instructions>:
200057f8:	40082015 a0464078 209500aa 40704018     . .@x@F.... .@p@
20005808:	c0008020 00002095                        .... ..

20005810 <vsync_detect_program>:
20005810:	20005818 0001ff10                       .X. ....

20005818 <vsync_detect_program_instructions>:
20005818:	202020a0 e03fc001 a24200c0 c0000044     .   ..?...B.D...
20005828:	20a03f40 e03fe052 004ca342 0000008b     @?. R.?.B.L.....

20005838 <video_capture_program>:
20005838:	20005840 0201ff09                       @X. ....

20005840 <video_capture_program_instructions>:
20005840:	25172597 20162597 40002796 40002716     .%.%.%. .'.@.'.@
20005850:	00000044                                D...

20005854 <__func__.4>:
20005854:	6e616863 5f6c656e 666e6f63 735f6769     channel_config_s
20005864:	635f7465 6e696168 006f745f 000001b8     et_chain_to.....
20005874:	00000007                                ....

20005878 <__func__.6>:
20005878:	5f717269 5f746573 6c637865 76697375     irq_set_exclusiv
20005888:	61685f65 656c646e 00000072              e_handler...

20005894 <__func__.1>:
20005894:	6574756d 78655f78 00007469              mutex_exit..

200058a0 <__func__.3>:
200058a0:	6574756d 6e655f78 5f726574 636f6c62     mutex_enter_bloc
200058b0:	6e755f6b 006c6974                       k_until.

200058b8 <__func__.6>:
200058b8:	746e7572 5f656d69 74696e69 74756d5f     runtime_init_mut
200058c8:	00007865                                ex..

200058cc <__func__.1>:
200058cc:	72616c61 6f705f6d 675f6c6f 645f7465     alarm_pool_get_d
200058dc:	75616665 0000746c                       efault..

200058e4 <__func__.2>:
200058e4:	72616c61 6f705f6d 695f6c6f 685f7172     alarm_pool_irq_h
200058f4:	6c646e61 00007265                       andler..

200058fc <__func__.0>:
200058fc:	5f6c6c70 74696e69 00000000              pll_init....

20005908 <__bi_84>:
20005908:	50520006 4275f0d3 20005464              ..RP..uBdT. 

20005914 <__bi_78>:
20005914:	50520006 7f8882e1 2000546c              ..RP....lT. 

20005920 <__bi_60>:
20005920:	50520006 11a9bc3a 2000547c              ..RP:...|T. 

2000592c <__bi_54>:
2000592c:	50520006 5360b3ab 20005480              ..RP..`S.T. 

20005938 <__bi_48>:
20005938:	50520006 b63cffbb 20005488              ..RP..<..T. 

20005944 <__bi_42>:
20005944:	50520006 02031c86 2000549c              ..RP.....T. 

20005950 <__bi_34>:
20005950:	50520006 9da22254 200054b0              ..RPT"...T. 

2000595c <__bi_26>:
2000595c:	50520005 68f465de 10005be0              ..RP.e.h.[..

20005968 <pow10.0>:
20005968:	00000000 3ff00000 00000000 40240000     .......?......$@
20005978:	00000000 40590000 00000000 408f4000     ......Y@.....@.@
20005988:	00000000 40c38800 00000000 40f86a00     .......@.....j.@
20005998:	00000000 412e8480 00000000 416312d0     .......A......cA
200059a8:	00000000 4197d784 00000000 41cdcd65     .......A....e..A

200059b8 <crlf_str.0>:
200059b8:	00000a0d                                ....

200059bc <__func__.1>:
200059bc:	646e6966 66666f5f 5f746573 5f726f66     find_offset_for_
200059cc:	676f7270 006d6172                       program.

200059d4 <__func__.0>:
200059d4:	73616c66 65645f68 666e6976 74705f6f     flash_devinfo_pt
200059e4:	00000072                                r...

200059e8 <__func__.2>:
200059e8:	73616c66 61725f68 5f65676e 676f7270     flash_range_prog
200059f8:	006d6172                                ram.

200059fc <__func__.3>:
200059fc:	73616c66 61725f68 5f65676e 73617265     flash_range_eras
20005a0c:	00000065                                e...

20005a10 <__func__.3>:
20005a10:	746c756d 726f6369 616c5f65 68636e75     multicore_launch
20005a20:	726f635f 775f3165 5f687469 63617473     _core1_with_stac
20005a30:	0000006b                                k...

20005a34 <scanline_level_laced>:
20005a34:	00000004                                ....

20005a38 <scanline_level>:
20005a38:	00000004                                ....

20005a3c <isPAL_prev>:
20005a3c:	                                         .

20005a3d <is_odd_field>:
20005a3d:	                                         .

20005a3e <vsync_go>:
20005a3e:	                                         .

20005a3f <isPAL>:
20005a3f:	                                         .

20005a40 <pio_rga>:
20005a40:	50300000                                ..0P

20005a44 <pio_video>:
20005a44:	50200000                                .. P

20005a48 <current_staging_addr>:
20005a48:	00100000                                ....

20005a4c <waiting_for_stx>:
20005a4c:	                                         .

20005a4d <striped_spin_lock_num>:
20005a4d:	                                         ...

20005a50 <default_alarm_pool>:
	...
20005a64:	20005ac0                                .Z. 

20005a68 <malloc_mutex>:
	...

20005a70 <print_mutex>:
	...

20005a78 <__pre_init_runtime_init_bootrom_reset>:
20005a78:	20001d89                                ... 

20005a7c <__pre_init_runtime_init_early_resets>:
20005a7c:	20001d01                                ... 

20005a80 <__pre_init_runtime_init_usb_power_down>:
20005a80:	20001d2d                                -.. 

20005a84 <__pre_init_runtime_init_clocks>:
20005a84:	20001dfd                                ... 

20005a88 <__pre_init_runtime_init_post_clock_resets>:
20005a88:	20001d69                                i.. 

20005a8c <__pre_init_runtime_init_boot_locks_reset>:
20005a8c:	20001c95                                ... 

20005a90 <__pre_init_runtime_init_spin_locks_reset>:
20005a90:	20001dad                                ... 

20005a94 <__pre_init_runtime_init_bootrom_locking_enable>:
20005a94:	20001c61                                a.. 

20005a98 <__pre_init_runtime_init_mutex>:
20005a98:	20001115                                ... 

20005a9c <__pre_init_runtime_init_install_ram_vector_table>:
20005a9c:	20001db5                                ... 

20005aa0 <__pre_init_runtime_init_default_alarm_pool>:
20005aa0:	2000185d                                ].. 

20005aa4 <__pre_init_first_per_core_initializer>:
20005aa4:	20001cdd                                ... 

20005aa8 <__pre_init_runtime_init_per_core_bootrom_reset>:
20005aa8:	20001d9b                                ... 

20005aac <__pre_init_runtime_init_per_core_enable_coprocessors>:
20005aac:	20001d4d                                M.. 

20005ab0 <__pre_init_spinlock_set_extexclall>:
20005ab0:	20000f99                                ... 

20005ab4 <__pre_init_runtime_init_per_core_irq_priorities>:
20005ab4:	20000ff1                                ... 

20005ab8 <__frame_dummy_init_array_entry>:
20005ab8:	2000013d                                =.. 
